quickshell:_IO_stdin_used
quickshell:_Z11logDbusMenuv
quickshell:_Z12logIncubatorv
quickshell:_Z13logQmlScannerv
quickshell:_Z13x11Connectionv
quickshell:_Z14logQsInterceptv
quickshell:_Z17logDbusPropertiesv
quickshell:_Z20getEngineImageAsIconP10QQmlEngineRK4QUrl
quickshell:_Z21logStatusNotifierHostv
quickshell:_Z21logStatusNotifierItemv
quickshell:_Z22installPopupPositionerv
quickshell:_Z23installPlatformMenuHookv
quickshell:_Z23installWlProxySafeDerefv
quickshell:_Z24logStatusNotifierWatcherv
quickshell:_Z27getCurrentEngineImageAsIconRK4QUrl
quickshell:_Z29qml_register_types_Quickshellv
quickshell:_Z31qInitResources_qmake_Quickshellv
quickshell:_Z31qInitResources_widgets_cliprectv
quickshell:_Z32qml_register_types_Quickshell_I3v
quickshell:_Z32qml_register_types_Quickshell_Iov
quickshell:_Z33qml_register_types_Quickshell_DWLv
quickshell:_Z33qml_register_types_Quickshell_X11v
quickshell:_Z33qt_static_plugin_QuickshellPluginv
quickshell:_Z34qCleanupResources_qmake_Quickshellv
quickshell:_Z34qCleanupResources_widgets_cliprectv
quickshell:_Z34qInitResources_qmake_Quickshell_I3v
quickshell:_Z34qInitResources_qmake_Quickshell_Iov
quickshell:_Z34qInitResources_widgets_cliprect_ubv
quickshell:_Z34qml_register_types_Quickshell_Niriv
quickshell:_Z35qInitResources_qmake_Quickshell_DWLv
quickshell:_Z35qInitResources_qmake_Quickshell_X11v
quickshell:_Z36qInitResources_qmake_Quickshell_Niriv
quickshell:_Z36qt_static_plugin_Quickshell_I3Pluginv
quickshell:_Z36qt_static_plugin_Quickshell_IoPluginv
quickshell:_Z37qCleanupResources_qmake_Quickshell_I3v
quickshell:_Z37qCleanupResources_qmake_Quickshell_Iov
quickshell:_Z37qCleanupResources_widgets_cliprect_ubv
quickshell:_Z37qInitResources_qmlcache_quickshell_iov
quickshell:_Z37qInitResources_qmlcache_quickshell_uiv
quickshell:_Z37qml_register_types_Quickshell_I3__Ipcv
quickshell:_Z37qml_register_types_Quickshell_Waylandv
quickshell:_Z37qml_register_types_Quickshell_Widgetsv
quickshell:_Z37qml_register_types_Quickshell__Windowv
quickshell:_Z37qt_static_plugin_Quickshell_DWLPluginv
quickshell:_Z37qt_static_plugin_Quickshell_X11Pluginv
quickshell:_Z38qCleanupResources_qmake_Quickshell_DWLv
quickshell:_Z38qCleanupResources_qmake_Quickshell_X11v
quickshell:_Z38qInitResources_quickshell_io_raw_qml_0v
quickshell:_Z38qInitResources_quickshell_ui_raw_qml_0v
quickshell:_Z38qml_register_types_Quickshell_DBusMenuv
quickshell:_Z38qml_register_types_Quickshell_Hyprlandv
quickshell:_Z38qt_static_plugin_Quickshell_NiriPluginv
quickshell:_Z39qCleanupResources_qmake_Quickshell_Niriv
quickshell:_Z39qInitResources_qmake_Quickshell_I3__Ipcv
quickshell:_Z39qInitResources_qmake_Quickshell_Waylandv
quickshell:_Z39qInitResources_qmake_Quickshell_Widgetsv
quickshell:_Z39qInitResources_qmake_Quickshell__Windowv
quickshell:_Z39qml_register_types_Quickshell_Bluetoothv
quickshell:_Z39qml_register_types_Quickshell_Niri__Ipcv
quickshell:_Z40qCleanupResources_qmlcache_quickshell_iov
quickshell:_Z40qCleanupResources_qmlcache_quickshell_uiv
quickshell:_Z40qInitResources_qmake_Quickshell_DBusMenuv
quickshell:_Z40qInitResources_qmake_Quickshell_Hyprlandv
quickshell:_Z40qml_register_types_Quickshell_Networkingv
quickshell:_Z41qCleanupResources_quickshell_io_raw_qml_0v
quickshell:_Z41qCleanupResources_quickshell_ui_raw_qml_0v
quickshell:_Z41qInitResources_qmake_Quickshell_Bluetoothv
quickshell:_Z41qInitResources_qmake_Quickshell_Niri__Ipcv
quickshell:_Z41qml_register_types_Quickshell__InternalUiv
quickshell:_Z41qt_static_plugin_Quickshell_I3__IpcPluginv
quickshell:_Z41qt_static_plugin_Quickshell_WaylandPluginv
quickshell:_Z41qt_static_plugin_Quickshell_WidgetsPluginv
quickshell:_Z41qt_static_plugin_Quickshell__WindowPluginv
quickshell:_Z42qCleanupResources_qmake_Quickshell_I3__Ipcv
quickshell:_Z42qCleanupResources_qmake_Quickshell_Waylandv
quickshell:_Z42qCleanupResources_qmake_Quickshell_Widgetsv
quickshell:_Z42qCleanupResources_qmake_Quickshell__Windowv
quickshell:_Z42qInitResources_qmake_Quickshell_Networkingv
quickshell:_Z42qInitResources_qmlcache_quickshell_widgetsv
quickshell:_Z42qml_register_types_Quickshell_Services_Pamv
quickshell:_Z42qt_static_plugin_Quickshell_DBusMenuPluginv
quickshell:_Z42qt_static_plugin_Quickshell_HyprlandPluginv
quickshell:_Z43qCleanupResources_qmake_Quickshell_DBusMenuv
quickshell:_Z43qCleanupResources_qmake_Quickshell_Hyprlandv
quickshell:_Z43qInitResources_qmake_Quickshell__InternalUiv
quickshell:_Z43qInitResources_quickshell_widgets_raw_qml_0v
quickshell:_Z43qml_register_types_Quickshell_Hyprland__Ipcv
quickshell:_Z43qml_register_types_Quickshell_WindowManagerv
quickshell:_Z43qt_static_plugin_Quickshell_BluetoothPluginv
quickshell:_Z43qt_static_plugin_Quickshell_Niri__IpcPluginv
quickshell:_Z44qCleanupResources_qmake_Quickshell_Bluetoothv
quickshell:_Z44qCleanupResources_qmake_Quickshell_Niri__Ipcv
quickshell:_Z44qInitResources_qmake_Quickshell_Services_Pamv
quickshell:_Z44qml_register_types_Quickshell_Services_Mprisv
quickshell:_Z44qt_static_plugin_Quickshell_NetworkingPluginv
quickshell:_Z45qCleanupResources_qmake_Quickshell_Networkingv
quickshell:_Z45qCleanupResources_qmlcache_quickshell_widgetsv
quickshell:_Z45qInitResources_qmake_Quickshell_Hyprland__Ipcv
quickshell:_Z45qInitResources_qmake_Quickshell_WindowManagerv
quickshell:_Z45qml_register_types_Quickshell_Services_Greetdv
quickshell:_Z45qml_register_types_Quickshell_Services_Polkitv
quickshell:_Z45qml_register_types_Quickshell_Services_UPowerv
quickshell:_Z45qt_static_plugin_Quickshell__InternalUiPluginv
quickshell:_Z46qCleanupResources_qmake_Quickshell__InternalUiv
quickshell:_Z46qCleanupResources_quickshell_widgets_raw_qml_0v
quickshell:_Z46qInitResources_qmake_Quickshell_Services_Mprisv
quickshell:_Z46qt_static_plugin_Quickshell_Services_PamPluginv
quickshell:_Z47qCleanupResources_qmake_Quickshell_Services_Pamv
quickshell:_Z47qInitResources_qmake_Quickshell_Services_Greetdv
quickshell:_Z47qInitResources_qmake_Quickshell_Services_Polkitv
quickshell:_Z47qInitResources_qmake_Quickshell_Services_UPowerv
quickshell:_Z47qml_register_types_Quickshell_Services_Pipewirev
quickshell:_Z47qt_static_plugin_Quickshell_Hyprland__IpcPluginv
quickshell:_Z47qt_static_plugin_Quickshell_WindowManagerPluginv
quickshell:_Z48qCleanupResources_qmake_Quickshell_Hyprland__Ipcv
quickshell:_Z48qCleanupResources_qmake_Quickshell_WindowManagerv
quickshell:_Z48qt_static_plugin_Quickshell_Services_MprisPluginv
quickshell:_Z49qCleanupResources_qmake_Quickshell_Services_Mprisv
quickshell:_Z49qInitResources_qmake_Quickshell_Services_Pipewirev
quickshell:_Z49qml_register_types_Quickshell_Hyprland__FocusGrabv
quickshell:_Z49qml_register_types_Quickshell_Services_SystemTrayv
quickshell:_Z49qml_register_types_Quickshell_Wayland__IdleNotifyv
quickshell:_Z49qml_register_types_Quickshell_Wayland__Screencopyv
quickshell:_Z49qt_static_plugin_Quickshell_Services_GreetdPluginv
quickshell:_Z49qt_static_plugin_Quickshell_Services_PolkitPluginv
quickshell:_Z49qt_static_plugin_Quickshell_Services_UPowerPluginv
quickshell:_Z50qCleanupResources_qmake_Quickshell_Services_Greetdv
quickshell:_Z50qCleanupResources_qmake_Quickshell_Services_Polkitv
quickshell:_Z50qCleanupResources_qmake_Quickshell_Services_UPowerv
quickshell:_Z51qInitResources_qmake_Quickshell_Hyprland__FocusGrabv
quickshell:_Z51qInitResources_qmake_Quickshell_Services_SystemTrayv
quickshell:_Z51qInitResources_qmake_Quickshell_Wayland__IdleNotifyv
quickshell:_Z51qInitResources_qmake_Quickshell_Wayland__Screencopyv
quickshell:_Z51qt_static_plugin_Quickshell_Services_PipewirePluginv
quickshell:_Z52qCleanupResources_qmake_Quickshell_Services_Pipewirev
quickshell:_Z52qml_register_types_Quickshell_Services_Notificationsv
quickshell:_Z52qml_register_types_Quickshell_Wayland__IdleInhibitorv
quickshell:_Z52qml_register_types_Quickshell_Wayland__WlrLayerShellv
quickshell:_Z53qt_static_plugin_Quickshell_Hyprland__FocusGrabPluginv
quickshell:_Z53qt_static_plugin_Quickshell_Services_SystemTrayPluginv
quickshell:_Z53qt_static_plugin_Quickshell_Wayland__IdleNotifyPluginv
quickshell:_Z53qt_static_plugin_Quickshell_Wayland__ScreencopyPluginv
quickshell:_Z54qCleanupResources_qmake_Quickshell_Hyprland__FocusGrabv
quickshell:_Z54qCleanupResources_qmake_Quickshell_Services_SystemTrayv
quickshell:_Z54qCleanupResources_qmake_Quickshell_Wayland__IdleNotifyv
quickshell:_Z54qCleanupResources_qmake_Quickshell_Wayland__Screencopyv
quickshell:_Z54qInitResources_qmake_Quickshell_Services_Notificationsv
quickshell:_Z54qInitResources_qmake_Quickshell_Wayland__IdleInhibitorv
quickshell:_Z54qInitResources_qmake_Quickshell_Wayland__WlrLayerShellv
quickshell:_Z55qml_register_types_Quickshell_Hyprland__GlobalShortcutsv
quickshell:_Z55qml_register_types_Quickshell_Wayland__BackgroundEffectv
quickshell:_Z56qt_static_plugin_Quickshell_Services_NotificationsPluginv
quickshell:_Z56qt_static_plugin_Quickshell_Wayland__IdleInhibitorPluginv
quickshell:_Z56qt_static_plugin_Quickshell_Wayland__WlrLayerShellPluginv
quickshell:_Z57qCleanupResources_qmake_Quickshell_Services_Notificationsv
quickshell:_Z57qCleanupResources_qmake_Quickshell_Wayland__IdleInhibitorv
quickshell:_Z57qCleanupResources_qmake_Quickshell_Wayland__WlrLayerShellv
quickshell:_Z57qInitResources_qmake_Quickshell_Hyprland__GlobalShortcutsv
quickshell:_Z57qInitResources_qmake_Quickshell_Wayland__BackgroundEffectv
quickshell:_Z57qml_register_types_Quickshell_Hyprland__SurfaceExtensionsv
quickshell:_Z57qml_register_types_Quickshell_Wayland__ShortcutsInhibitorv
quickshell:_Z57qml_register_types_Quickshell_Wayland__ToplevelManagementv
quickshell:_Z59qInitResources_qmake_Quickshell_Hyprland__SurfaceExtensionsv
quickshell:_Z59qInitResources_qmake_Quickshell_Wayland__ShortcutsInhibitorv
quickshell:_Z59qInitResources_qmake_Quickshell_Wayland__ToplevelManagementv
quickshell:_Z59qt_static_plugin_Quickshell_Hyprland__GlobalShortcutsPluginv
quickshell:_Z59qt_static_plugin_Quickshell_Wayland__BackgroundEffectPluginv
quickshell:_Z60qCleanupResources_qmake_Quickshell_Hyprland__GlobalShortcutsv
quickshell:_Z60qCleanupResources_qmake_Quickshell_Wayland__BackgroundEffectv
quickshell:_Z61qt_static_plugin_Quickshell_Hyprland__SurfaceExtensionsPluginv
quickshell:_Z61qt_static_plugin_Quickshell_Wayland__ShortcutsInhibitorPluginv
quickshell:_Z61qt_static_plugin_Quickshell_Wayland__ToplevelManagementPluginv
quickshell:_Z62qCleanupResources_qmake_Quickshell_Hyprland__SurfaceExtensionsv
quickshell:_Z62qCleanupResources_qmake_Quickshell_Wayland__ShortcutsInhibitorv
quickshell:_Z62qCleanupResources_qmake_Quickshell_Wayland__ToplevelManagementv
quickshell:_Z6logPamv
quickshell:_Z7logBarev
quickshell:_Z9logSocketv
quickshell:_ZN10DataStream11qt_metacallEN11QMetaObject4CallEiPPv
quickshell:_ZN10DataStream11qt_metacastEPKc
quickshell:_ZN10DataStream13readerChangedEv
quickshell:_ZN10DataStream16onBytesAvailableEv
quickshell:_ZN10DataStream16staticMetaObjectE
quickshell:_ZN10DataStream17onReaderDestroyedEv
quickshell:_ZN10DataStream9setReaderEP16DataStreamParser
quickshell:_ZN10LazyLoader10setLoadingEb
quickshell:_ZN10LazyLoader11itemChangedEv
quickshell:_ZN10LazyLoader11qt_metacallEN11QMetaObject4CallEiPPv
quickshell:_ZN10LazyLoader11qt_metacastEPKc
quickshell:_ZN10LazyLoader12setComponentEP13QQmlComponent
quickshell:_ZN10LazyLoader13activeChangedEv
quickshell:_ZN10LazyLoader13sourceChangedEv
quickshell:_ZN10LazyLoader14loadingChangedEv
quickshell:_ZN10LazyLoader14setActiveAsyncEb
quickshell:_ZN10LazyLoader15incubateIfReadyEb
quickshell:_ZN10LazyLoader16componentChangedEv
quickshell:_ZN10LazyLoader16staticMetaObjectE
quickshell:_ZN10LazyLoader18onIncubationFailedEv
quickshell:_ZN10LazyLoader20onComponentDestroyedEv
quickshell:_ZN10LazyLoader21onIncubationCompletedEv
quickshell:_ZN10LazyLoader4itemEv
quickshell:_ZN10LazyLoader7setItemEP7QObject
quickshell:_ZN10LazyLoader8onReloadEP7QObject
quickshell:_ZN10LazyLoader9setActiveEb
quickshell:_ZN10LazyLoader9setSourceE7QString
quickshell:_ZN10PamContext10pamMessageEv
quickshell:_ZN10PamContext11onCompletedEN9PamResult4EnumE
quickshell:_ZN10PamContext11qt_metacallEN11QMetaObject4CallEiPPv
quickshell:_ZN10PamContext11qt_metacastEPKc
quickshell:_ZN10PamContext11userChangedEv
quickshell:_ZN10PamContext13activeChangedEv
quickshell:_ZN10PamContext13configChangedEv
quickshell:_ZN10PamContext14messageChangedEv
quickshell:_ZN10PamContext16staticMetaObjectE
quickshell:_ZN10PamContext17abortConversationEv
quickshell:_ZN10PamContext17componentCompleteEv
quickshell:_ZN10PamContext17startConversationEv
quickshell:_ZN10PamContext18setConfigDirectoryE7QString
quickshell:_ZN10PamContext21messageIsErrorChangedEv
quickshell:_ZN10PamContext22configDirectoryChangedEv
quickshell:_ZN10PamContext22responseVisibleChangedEv
quickshell:_ZN10PamContext23responseRequiredChangedEv
quickshell:_ZN10PamContext5abortEv
quickshell:_ZN10PamContext5errorEN8PamError4EnumE
quickshell:_ZN10PamContext5startEv
quickshell:_ZN10PamContext7onErrorEN8PamError4EnumE
quickshell:_ZN10PamContext7respondERK7QString
quickshell:_ZN10PamContext7setUserE7QString
quickshell:_ZN10PamContext9completedEN9PamResult4EnumE
quickshell:_ZN10PamContext9onMessageE7QStringbbb
quickshell:_ZN10PamContext9setActiveEb
quickshell:_ZN10PamContext9setConfigE7QString
quickshell:_ZN10QmlScanner11scanQmlFileERK7QStringRbS3_
quickshell:_ZN10QmlScanner11scanQmlJsonERK7QString
quickshell:_ZN10QmlScanner11scanQmlRootERK7QString
quickshell:_ZN10QmlScanner15readAndHashFileERK7QStringR10QByteArray
quickshell:_ZN10QmlScanner7scanDirERK4QDir
quickshell:_ZN10QmlScanner9jsonToQmlERK10QJsonValuei
quickshell:_ZN10Reloadable11qt_metacallEN11QMetaObject4CallEiPPv
quickshell:_ZN10Reloadable11qt_metacastEPKc
quickshell:_ZN10Reloadable15reloadRecursiveEP7QObjectS1_
quickshell:_ZN10Reloadable16onReloadFinishedEv
quickshell:_ZN10Reloadable16staticMetaObjectE
quickshell:_ZN10Reloadable17componentCompleteEv
quickshell:_ZN10Reloadable18getChildByReloadIdEP7QObjectRK7QString
quickshell:_ZN10Reloadable21onGenerationDestroyedEv
quickshell:_ZN10Reloadable23reloadChildrenRecursiveEP7QObjectS1_
quickshell:_ZN10Reloadable6reloadEP7QObject
quickshell:_ZN10Retainable14retainFinishedEv
quickshell:_ZN10Retainable15retainedDestroyEv
quickshell:_ZN10SystemTray11qt_metacallEN11QMetaObject4CallEiPPv
quickshell:_ZN10SystemTray11qt_metacastEPKc
quickshell:_ZN10SystemTray12compareItemsEPN2qs7service3sni18StatusNotifierItemES4_
quickshell:_ZN10SystemTray16onItemRegisteredEPN2qs7service3sni18StatusNotifierItemE
quickshell:_ZN10SystemTray16staticMetaObjectE
quickshell:_ZN10SystemTray18onItemUnregisteredEPN2qs7service3sni18StatusNotifierItemE
quickshell:_ZN10SystemTray5itemsEv
quickshell:_ZN10SystemTrayC1EP7QObject
quickshell:_ZN10SystemTrayC2EP7QObject
quickshell:_ZN11CornerState16staticMetaObjectE
quickshell:_ZN11EasingCurve11qt_metacallEN11QMetaObject4CallEiPPv
quickshell:_ZN11EasingCurve11qt_metacastEPKc
quickshell:_ZN11EasingCurve12curveChangedEv
quickshell:_ZN11EasingCurve16staticMetaObjectE
quickshell:_ZN11EasingCurve8setCurveE12QEasingCurve
quickshell:_ZN11GreetdState11qt_metacallEN11QMetaObject4CallEiPPv
quickshell:_ZN11GreetdState11qt_metacastEPKc
quickshell:_ZN11GreetdState16staticMetaObjectE
quickshell:_ZN11GreetdState8toStringENS_4EnumE
quickshell:_ZN11PamIpcPipesD1Ev
quickshell:_ZN11PamIpcPipesD2Ev
quickshell:_ZN11PopupAnchor10setGravityE6QFlagsIN5Edges4EnumEE
quickshell:_ZN11PopupAnchor10setMarginsE7Margins
quickshell:_ZN11PopupAnchor11itemChangedEv
quickshell:_ZN11PopupAnchor11qt_metacallEN11QMetaObject4CallEiPPv
quickshell:_ZN11PopupAnchor11qt_metacastEPKc
quickshell:_ZN11PopupAnchor11rectChangedEv
quickshell:_ZN11PopupAnchor12edgesChangedEv
quickshell:_ZN11PopupAnchor12updateAnchorEv
quickshell:_ZN11PopupAnchor13setAdjustmentE6QFlagsIN15PopupAdjustment4EnumEE
quickshell:_ZN11PopupAnchor13setWindowRectE5QRect
quickshell:_ZN11PopupAnchor13windowChangedEv
quickshell:_ZN11PopupAnchor14gravityChangedEv
quickshell:_ZN11PopupAnchor14marginsChangedEv
quickshell:_ZN11PopupAnchor15onItemDestroyedEv
quickshell:_ZN11PopupAnchor15updatePlacementERK6QPointRK5QSize
quickshell:_ZN11PopupAnchor16staticMetaObjectE
quickshell:_ZN11PopupAnchor17adjustmentChangedEv
quickshell:_ZN11PopupAnchor17onWindowDestroyedEv
quickshell:_ZN11PopupAnchor17setWindowInternalEP7QObject
quickshell:_ZN11PopupAnchor17windowRectChangedEv
quickshell:_ZN11PopupAnchor19onItemWindowChangedEv
quickshell:_ZN11PopupAnchor30backingWindowVisibilityChangedEv
quickshell:_ZN11PopupAnchor7setItemEP10QQuickItem
quickshell:_ZN11PopupAnchor7setRectE3Box
quickshell:_ZN11PopupAnchor8setEdgesE6QFlagsIN5Edges4EnumEE
quickshell:_ZN11PopupAnchor9anchoringEv
quickshell:_ZN11PopupAnchor9markCleanEv
quickshell:_ZN11PopupAnchor9markDirtyEv
quickshell:_ZN11PopupAnchor9resetRectEv
quickshell:_ZN11PopupAnchor9setWindowEP7QObject
quickshell:_ZN11RegionShape16staticMetaObjectE
quickshell:_ZN11RootWrapper11qt_metacallEN11QMetaObject4CallEiPPv
quickshell:_ZN11RootWrapper11qt_metacastEPKc
quickshell:_ZN11RootWrapper11reloadGraphEb
quickshell:_ZN11RootWrapper13updateToolingEv
quickshell:_ZN11RootWrapper16staticMetaObjectE
quickshell:_ZN11RootWrapper19generationDestroyedEv
quickshell:_ZN11RootWrapper19onWatchFilesChangedEv
quickshell:_ZN11RootWrapper21onWatchedFilesChangedEv
quickshell:_ZN11RootWrapperC1E7QStringS0_
quickshell:_ZN11RootWrapperC2E7QStringS0_
quickshell:_ZN11RootWrapperD0Ev
quickshell:_ZN11RootWrapperD1Ev
quickshell:_ZN11RootWrapperD2Ev
quickshell:_ZN11ScriptModel11qt_metacallEN11QMetaObject4CallEiPPv
quickshell:_ZN11ScriptModel11qt_metacastEPKc
quickshell:_ZN11ScriptModel13setObjectPropERK7QString
quickshell:_ZN11ScriptModel13valuesChangedEv
quickshell:_ZN11ScriptModel16staticMetaObjectE
quickshell:_ZN11ScriptModel17objectPropChangedEv
quickshell:_ZN11ScriptModel18updateValuesUniqueERK5QListI8QVariantE
quickshell:_ZN11ScriptModel9setValuesERK5QListI8QVariantE
quickshell:_ZN11SplitParser10parseBytesER10QByteArrayS1_
quickshell:_ZN11SplitParser11qt_metacallEN11QMetaObject4CallEiPPv
quickshell:_ZN11SplitParser11qt_metacastEPKc
quickshell:_ZN11SplitParser11streamEndedER10QByteArray
quickshell:_ZN11SplitParser14setSplitMarkerE7QString
quickshell:_ZN11SplitParser16staticMetaObjectE
quickshell:_ZN11SplitParser18splitMarkerChangedEv
quickshell:_ZN11SystemClock10setEnabledEb
quickshell:_ZN11SystemClock11dateChangedEv
quickshell:_ZN11SystemClock11qt_metacallEN11QMetaObject4CallEiPPv
quickshell:_ZN11SystemClock11qt_metacastEPKc
quickshell:_ZN11SystemClock12setPrecisionENS_4EnumE
quickshell:_ZN11SystemClock14enabledChangedEv
quickshell:_ZN11SystemClock16precisionChangedEv
quickshell:_ZN11SystemClock16staticMetaObjectE
quickshell:_ZN11SystemClock6updateEv
quickshell:_ZN11SystemClock7setTimeERK9QDateTime
quickshell:_ZN11SystemClock8scheduleERK9QDateTime
quickshell:_ZN11SystemClock9onTimeoutEv
quickshell:_ZN11SystemClockC1EP7QObject
quickshell:_ZN11SystemClockC2EP7QObject
quickshell:_ZN12DesktopEntry11iconChangedEv
quickshell:_ZN12DesktopEntry11nameChangedEv
quickshell:_ZN12DesktopEntry11qt_metacallEN11QMetaObject4CallEiPPv
quickshell:_ZN12DesktopEntry11qt_metacastEPKc
quickshell:_ZN12DesktopEntry11updateStateERK22ParsedDesktopEntryData
quickshell:_ZN12DesktopEntry13updateActionsERK5QListI17DesktopActionDataE
quickshell:_ZN12DesktopEntry14commandChangedEv
quickshell:_ZN12DesktopEntry14commentChangedEv
quickshell:_ZN12DesktopEntry15keywordsChangedEv
quickshell:_ZN12DesktopEntry15parseExecStringERK7QString
quickshell:_ZN12DesktopEntry16noDisplayChangedEv
quickshell:_ZN12DesktopEntry16staticMetaObjectE
quickshell:_ZN12DesktopEntry17categoriesChangedEv
quickshell:_ZN12DesktopEntry17execStringChangedEv
quickshell:_ZN12DesktopEntry18genericNameChangedEv
quickshell:_ZN12DesktopEntry19startupClassChangedEv
quickshell:_ZN12DesktopEntry20runInTerminalChangedEv
quickshell:_ZN12DesktopEntry23workingDirectoryChangedEv
quickshell:_ZN12DesktopEntry6doExecERK5QListI7QStringERKS1_
quickshell:_ZN12DesktopEntry9parseTextERK7QStringS2_
quickshell:_ZN12ElapsedTimer11qt_metacallEN11QMetaObject4CallEiPPv
quickshell:_ZN12ElapsedTimer11qt_metacastEPKc
quickshell:_ZN12ElapsedTimer16staticMetaObjectE
quickshell:_ZN12ElapsedTimer7elapsedEv
quickshell:_ZN12ElapsedTimer7restartEv
quickshell:_ZN12ElapsedTimer9elapsedMsEv
quickshell:_ZN12ElapsedTimer9elapsedNsEv
quickshell:_ZN12ElapsedTimer9restartMsEv
quickshell:_ZN12ElapsedTimer9restartNsEv
quickshell:_ZN12ElapsedTimerC1Ev
quickshell:_ZN12ElapsedTimerC2Ev
quickshell:_ZN12InstanceInfo7CURRENTE
quickshell:_ZN12Intersection16staticMetaObjectE
quickshell:_ZN12SocketServer10setHandlerEP13QQmlComponent
quickshell:_ZN12SocketServer11pathChangedEv
quickshell:_ZN12SocketServer11qt_metacallEN11QMetaObject4CallEiPPv
quickshell:_ZN12SocketServer11qt_metacastEPKc
quickshell:_ZN12SocketServer12enableServerEv
quickshell:_ZN12SocketServer13disableServerEv
quickshell:_ZN12SocketServer13isActivatableEv
quickshell:_ZN12SocketServer14handlerChangedEv
quickshell:_ZN12SocketServer15onNewConnectionEv
quickshell:_ZN12SocketServer16staticMetaObjectE
quickshell:_ZN12SocketServer19activeStatusChangedEv
quickshell:_ZN12SocketServer7setPathE7QString
quickshell:_ZN12SocketServer8onReloadEP7QObject
quickshell:_ZN12SocketServer9setActiveEb
quickshell:_ZN12SocketServerD0Ev
quickshell:_ZN12SocketServerD1Ev
quickshell:_ZN12SocketServerD2Ev
quickshell:_ZN12StreamReader16startTransactionEv
quickshell:_ZN12StreamReader17commitTransactionEv
quickshell:_ZN12StreamReader4fillEv
quickshell:_ZN12StreamReader5resetEv
quickshell:_ZN12StreamReader7readI32Ev
quickshell:_ZN12StreamReader8readIntoEPcx
quickshell:_ZN12StreamReader9readBytesEx
quickshell:_ZN12StreamReader9readUntilEc
quickshell:_ZN12StreamReader9setDeviceEP9QIODevice
quickshell:_ZN12XPanelWindow11qt_metacallEN11QMetaObject4CallEiPPv
quickshell:_ZN12XPanelWindow11qt_metacastEPKc
quickshell:_ZN12XPanelWindow11trySetWidthEi
quickshell:_ZN12XPanelWindow11updateStrutEb
quickshell:_ZN12XPanelWindow12trySetHeightEi
quickshell:_ZN12XPanelWindow12updateScreenEv
quickshell:_ZN12XPanelWindow13connectWindowEv
quickshell:_ZN12XPanelWindow14anchorsChangedEv
quickshell:_ZN12XPanelWindow14marginsChangedEv
quickshell:_ZN12XPanelWindow15updateFocusableEv
quickshell:_ZN12XPanelWindow16focusableChangedEv
quickshell:_ZN12XPanelWindow16staticMetaObjectE
quickshell:_ZN12XPanelWindow16updateDimensionsEb
quickshell:_ZN12XPanelWindow16updatePanelStackEv
quickshell:_ZN12XPanelWindow18updateAboveWindowsEv
quickshell:_ZN12XPanelWindow19aboveWindowsChangedEv
quickshell:_ZN12XPanelWindow20exclusionModeChangedEv
quickshell:_ZN12XPanelWindow20exclusiveZoneChangedEv
quickshell:_ZN12XPanelWindow20updateDimensionsSlotEv
quickshell:_ZN12XPanelWindow30onScreenVirtualGeometryChangedEv
quickshell:_ZN12XPanelWindow5xInitEv
quickshell:_ZN12XPanelWindow9setScreenEP20QuickshellScreenInfo
quickshell:_ZN12XPanelWindowC1EP7QObject
quickshell:_ZN12XPanelWindowC2EP7QObject
quickshell:_ZN12XPanelWindowD0Ev
quickshell:_ZN12XPanelWindowD1Ev
quickshell:_ZN12XPanelWindowD2Ev
quickshell:_ZN13DesktopAction11iconChangedEv
quickshell:_ZN13DesktopAction11nameChangedEv
quickshell:_ZN13DesktopAction11qt_metacallEN11QMetaObject4CallEiPPv
quickshell:_ZN13DesktopAction11qt_metacastEPKc
quickshell:_ZN13DesktopAction14commandChangedEv
quickshell:_ZN13DesktopAction16staticMetaObjectE
quickshell:_ZN13DesktopAction17execStringChangedEv
quickshell:_ZN13ExclusionMode16staticMetaObjectE
quickshell:_ZN13PamSubprocess12conversationEiPPK11pam_messagePP12pam_responsePv
quickshell:_ZN13PamSubprocess4execEPKcS1_S1_
quickshell:_ZN13PamSubprocess8sendCodeE14PamIpcExitCode
quickshell:_ZN13PendingRegion11itemChangedEv
quickshell:_ZN13PendingRegion11qt_metacallEN11QMetaObject4CallEiPPv
quickshell:_ZN13PendingRegion11qt_metacastEPKc
quickshell:_ZN13PendingRegion12regionsClearEP16QQmlListPropertyIS_E
quickshell:_ZN13PendingRegion12regionsCountEP16QQmlListPropertyIS_E
quickshell:_ZN13PendingRegion12shapeChangedEv
quickshell:_ZN13PendingRegion12widthChangedEv
quickshell:_ZN13PendingRegion13heightChangedEv
quickshell:_ZN13PendingRegion13radiusChangedEv
quickshell:_ZN13PendingRegion13regionsAppendEP16QQmlListPropertyIS_EPS_
quickshell:_ZN13PendingRegion14regionsReplaceEP16QQmlListPropertyIS_ExPS_
quickshell:_ZN13PendingRegion15childrenChangedEv
quickshell:_ZN13PendingRegion15onItemDestroyedEv
quickshell:_ZN13PendingRegion16onChildDestroyedEv
quickshell:_ZN13PendingRegion16staticMetaObjectE
quickshell:_ZN13PendingRegion17regionsRemoveLastEP16QQmlListPropertyIS_E
quickshell:_ZN13PendingRegion19intersectionChangedEv
quickshell:_ZN13PendingRegion20topLeftCornerChangedEv
quickshell:_ZN13PendingRegion21topRightCornerChangedEv
quickshell:_ZN13PendingRegion23bottomLeftCornerChangedEv
quickshell:_ZN13PendingRegion24bottomRightCornerChangedEv
quickshell:_ZN13PendingRegion7changedEv
quickshell:_ZN13PendingRegion7regionsEv
quickshell:_ZN13PendingRegion7setItemEP10QQuickItem
quickshell:_ZN13PendingRegion8regionAtEP16QQmlListPropertyIS_Ex
quickshell:_ZN13PendingRegion8xChangedEv
quickshell:_ZN13PendingRegion8yChangedEv
quickshell:_ZN13PendingRegionC1EP7QObject
quickshell:_ZN13PendingRegionC2EP7QObject
quickshell:_ZN13ProxiedWindow11exposeEventEP12QExposeEvent
quickshell:_ZN13ProxiedWindow11qt_metacallEN11QMetaObject4CallEiPPv
quickshell:_ZN13ProxiedWindow11qt_metacastEPKc
quickshell:_ZN13ProxiedWindow16staticMetaObjectE
quickshell:_ZN13ProxiedWindow23devicePixelRatioChangedEv
quickshell:_ZN13ProxiedWindow5eventEP6QEvent
quickshell:_ZN13ProxiedWindow7exposedEv
quickshell:_ZN13QsImageHandle12requestImageERK7QStringP5QSizeRKS3_
quickshell:_ZN13QsImageHandle13requestPixmapERK7QStringP5QSizeRKS3_
quickshell:_ZN13QsImageHandleC1EN21QQmlImageProviderBase9ImageTypeE
quickshell:_ZN13QsImageHandleC2EN21QQmlImageProviderBase9ImageTypeE
quickshell:_ZN13QsImageHandleD0Ev
quickshell:_ZN13QsImageHandleD1Ev
quickshell:_ZN13QsImageHandleD2Ev
quickshell:_ZN13WlSessionLock11qt_metacallEN11QMetaObject4CallEiPPv
quickshell:_ZN13WlSessionLock11qt_metacastEPKc
quickshell:_ZN13WlSessionLock14updateSurfacesEbPS_
quickshell:_ZN13WlSessionLock16lockStateChangedEv
quickshell:_ZN13WlSessionLock16onScreensChangedEv
quickshell:_ZN13WlSessionLock16staticMetaObjectE
quickshell:_ZN13WlSessionLock17realizeLockTargetEPS_
quickshell:_ZN13WlSessionLock18secureStateChangedEv
quickshell:_ZN13WlSessionLock19setSurfaceComponentEP13QQmlComponent
quickshell:_ZN13WlSessionLock23surfaceComponentChangedEv
quickshell:_ZN13WlSessionLock6unlockEv
quickshell:_ZN13WlSessionLock8onReloadEP7QObject
quickshell:_ZN13WlSessionLock9setLockedEb
quickshell:_ZN14BoundComponent10updateSizeEv
quickshell:_ZN14BoundComponent11qt_metacallEN11QMetaObject4CallEiPPv
quickshell:_ZN14BoundComponent11qt_metacastEPKc
quickshell:_ZN14BoundComponent13setBindValuesEb
quickshell:_ZN14BoundComponent13sourceChangedEv
quickshell:_ZN14BoundComponent16staticMetaObjectE
quickshell:_ZN14BoundComponent17bindValuesChangedEv
quickshell:_ZN14BoundComponent17componentCompleteEv
quickshell:_ZN14BoundComponent18onIncubationFailedEv
quickshell:_ZN14BoundComponent18setSourceComponentEP13QQmlComponent
quickshell:_ZN14BoundComponent18updateImplicitSizeEv
quickshell:_ZN14BoundComponent19disconnectComponentEv
quickshell:_ZN14BoundComponent20onComponentDestroyedEv
quickshell:_ZN14BoundComponent21onIncubationCompletedEv
quickshell:_ZN14BoundComponent22sourceComponentChangedEv
quickshell:_ZN14BoundComponent6loadedEv
quickshell:_ZN14BoundComponent9setSourceE7QString
quickshell:_ZN14BoundComponent9tryCreateEv
quickshell:_ZN14ColorQuantizer11cancelAsyncEv
quickshell:_ZN14ColorQuantizer11qt_metacallEN11QMetaObject4CallEiPPv
quickshell:_ZN14ColorQuantizer11qt_metacastEPKc
quickshell:_ZN14ColorQuantizer12depthChangedEv
quickshell:_ZN14ColorQuantizer13colorsChangedEv
quickshell:_ZN14ColorQuantizer13quantizeAsyncEv
quickshell:_ZN14ColorQuantizer13sourceChangedEv
quickshell:_ZN14ColorQuantizer14setRescaleSizeEi
quickshell:_ZN14ColorQuantizer16staticMetaObjectE
quickshell:_ZN14ColorQuantizer17componentCompleteEv
quickshell:_ZN14ColorQuantizer17operationFinishedERK5QListI6QColorE
quickshell:_ZN14ColorQuantizer18rescaleSizeChangedEv
quickshell:_ZN14ColorQuantizer8setDepthEd
quickshell:_ZN14ColorQuantizer9setSourceERK4QUrl
quickshell:_ZN14DesktopEntries11qt_metacallEN11QMetaObject4CallEiPPv
quickshell:_ZN14DesktopEntries11qt_metacastEPKc
quickshell:_ZN14DesktopEntries12applicationsEv
quickshell:_ZN14DesktopEntries15heuristicLookupERK7QString
quickshell:_ZN14DesktopEntries16staticMetaObjectE
quickshell:_ZN14DesktopEntries19applicationsChangedEv
quickshell:_ZN14DesktopEntries4byIdERK7QString
quickshell:_ZN14DesktopEntriesC1Ev
quickshell:_ZN14DesktopEntriesC2Ev
quickshell:_ZN14PostReloadHook10postReloadEv
quickshell:_ZN14PostReloadHook11qt_metacallEN11QMetaObject4CallEiPPv
quickshell:_ZN14PostReloadHook11qt_metacastEPKc
quickshell:_ZN14PostReloadHook16staticMetaObjectE
quickshell:_ZN14PostReloadHook17componentCompleteEv
quickshell:_ZN14QsEnginePlugin11initPluginsEv
quickshell:_ZN14QsEnginePlugin11runOnReloadEv
quickshell:_ZN14QsEnginePlugin14registerPluginERS_
quickshell:_ZN14QsEnginePlugin22runConstructGenerationER16EngineGeneration
quickshell:_ZN14QsQmlIncubator11qt_metacallEN11QMetaObject4CallEiPPv
quickshell:_ZN14QsQmlIncubator11qt_metacastEPKc
quickshell:_ZN14QsQmlIncubator13statusChangedEN13QQmlIncubator6StatusE
quickshell:_ZN14QsQmlIncubator16staticMetaObjectE
quickshell:_ZN14QsQmlIncubator6failedEv
quickshell:_ZN14QsQmlIncubator9completedEv
quickshell:_ZN14RetainableHook11forceUnlockEv
quickshell:_ZN14RetainableHook11qt_metacallEN11QMetaObject4CallEiPPv
quickshell:_ZN14RetainableHook11qt_metacastEPKc
quickshell:_ZN14RetainableHook14aboutToDestroyEv
quickshell:_ZN14RetainableHook15retainedChangedEv
quickshell:_ZN14RetainableHook16staticMetaObjectE
quickshell:_ZN14RetainableHook21qmlAttachedPropertiesEP7QObject
quickshell:_ZN14RetainableHook3refEv
quickshell:_ZN14RetainableHook4lockEv
quickshell:_ZN14RetainableHook5unrefEv
quickshell:_ZN14RetainableHook6unlockEv
quickshell:_ZN14RetainableHook7droppedEv
quickshell:_ZN14RetainableHook7getHookEP7QObjectb
quickshell:_ZN14RetainableHook8unlockedEv
quickshell:_ZN14RetainableLock11qt_metacallEN11QMetaObject4CallEiPPv
quickshell:_ZN14RetainableLock11qt_metacastEPKc
quickshell:_ZN14RetainableLock13lockedChangedEv
quickshell:_ZN14RetainableLock13objectChangedEv
quickshell:_ZN14RetainableLock14aboutToDestroyEv
quickshell:_ZN14RetainableLock15retainedChangedEv
quickshell:_ZN14RetainableLock16staticMetaObjectE
quickshell:_ZN14RetainableLock17onObjectDestroyedEv
quickshell:_ZN14RetainableLock7droppedEv
quickshell:_ZN14RetainableLock9setLockedEb
quickshell:_ZN14RetainableLock9setObjectEP7QObject
quickshell:_ZN14RetainableLockD0Ev
quickshell:_ZN14RetainableLockD1Ev
quickshell:_ZN14RetainableLockD2Ev
quickshell:_ZN14StdioCollector10parseBytesER10QByteArrayS1_
quickshell:_ZN14StdioCollector11dataChangedEv
quickshell:_ZN14StdioCollector11qt_metacallEN11QMetaObject4CallEiPPv
quickshell:_ZN14StdioCollector11qt_metacastEPKc
quickshell:_ZN14StdioCollector11streamEndedER10QByteArray
quickshell:_ZN14StdioCollector13setWaitForEndEb
quickshell:_ZN14StdioCollector14streamFinishedEv
quickshell:_ZN14StdioCollector16staticMetaObjectE
quickshell:_ZN14StdioCollector17waitForEndChangedEv
quickshell:_ZN15DBusMprisPlayer11qt_metacallEN11QMetaObject4CallEiPPv
quickshell:_ZN15DBusMprisPlayer11qt_metacastEPKc
quickshell:_ZN15DBusMprisPlayer16staticMetaObjectE
quickshell:_ZN15DBusMprisPlayer6SeekedEx
quickshell:_ZN15DBusMprisPlayerC1ERK7QStringS2_RK15QDBusConnectionP7QObject
quickshell:_ZN15DBusMprisPlayerC2ERK7QStringS2_RK15QDBusConnectionP7QObject
quickshell:_ZN15DBusMprisPlayerD0Ev
quickshell:_ZN15DBusMprisPlayerD1Ev
quickshell:_ZN15DBusMprisPlayerD2Ev
quickshell:_ZN15PamConversation11qt_metacallEN11QMetaObject4CallEiPPv
quickshell:_ZN15PamConversation11qt_metacastEPKc
quickshell:_ZN15PamConversation13internalErrorEv
quickshell:_ZN15PamConversation16createSubprocessEP11PamIpcPipesRK7QStringS4_S4_
quickshell:_ZN15PamConversation16staticMetaObjectE
quickshell:_ZN15PamConversation5abortEv
quickshell:_ZN15PamConversation5errorEN8PamError4EnumE
quickshell:_ZN15PamConversation5startERK7QStringS2_S2_
quickshell:_ZN15PamConversation7messageE7QStringbbb
quickshell:_ZN15PamConversation7respondERK7QString
quickshell:_ZN15PamConversation9completedEN9PamResult4EnumE
quickshell:_ZN15PamConversation9onMessageEv
quickshell:_ZN15PamConversationD0Ev
quickshell:_ZN15PamConversationD1Ev
quickshell:_ZN15PamConversationD2Ev
quickshell:_ZN15PopupAdjustment16staticMetaObjectE
quickshell:_ZN15PopupPositioner10repositionEP11PopupAnchorP7QWindowb
quickshell:_ZN15PopupPositioner11setInstanceEPS_
quickshell:_ZN15PopupPositioner8instanceEv
quickshell:_ZN15ProxyWindowBase10onPolishedEv
quickshell:_ZN15ProxyWindowBase10setVisibleEb
quickshell:_ZN15ProxyWindowBase10updateMaskEv
quickshell:_ZN15ProxyWindowBase11maskChangedEv
quickshell:_ZN15ProxyWindowBase11polishItemsEv
quickshell:_ZN15ProxyWindowBase11qt_metacallEN11QMetaObject4CallEiPPv
quickshell:_ZN15ProxyWindowBase11qt_metacastEPKc
quickshell:_ZN15ProxyWindowBase11trySetWidthEi
quickshell:_ZN15ProxyWindowBase12colorChangedEv
quickshell:_ZN15ProxyWindowBase12createWindowEv
quickshell:_ZN15ProxyWindowBase12deleteWindowEb
quickshell:_ZN15ProxyWindowBase12disownWindowEb
quickshell:_ZN15ProxyWindowBase12trySetHeightEi
quickshell:_ZN15ProxyWindowBase12widthChangedEv
quickshell:_ZN15ProxyWindowBase13connectWindowEv
quickshell:_ZN15ProxyWindowBase13ensureQWindowEv
quickshell:_ZN15ProxyWindowBase13heightChangedEv
quickshell:_ZN15ProxyWindowBase13onMaskChangedEv
quickshell:_ZN15ProxyWindowBase13resourcesLostEv
quickshell:_ZN15ProxyWindowBase13screenChangedEv
quickshell:_ZN15ProxyWindowBase14completeWindowEv
quickshell:_ZN15ProxyWindowBase14onWidthChangedEv
quickshell:_ZN15ProxyWindowBase14retrieveWindowEP7QObject
quickshell:_ZN15ProxyWindowBase14schedulePolishEv
quickshell:_ZN15ProxyWindowBase14visibleChangedEv
quickshell:_ZN15ProxyWindowBase15onHeightChangedEv
quickshell:_ZN15ProxyWindowBase15onMaskDestroyedEv
quickshell:_ZN15ProxyWindowBase15windowConnectedEv
quickshell:_ZN15ProxyWindowBase15windowDestroyedEv
quickshell:_ZN15ProxyWindowBase16onVisibleChangedEv
quickshell:_ZN15ProxyWindowBase16setImplicitWidthEi
quickshell:_ZN15ProxyWindowBase16setSurfaceFormatE15QsSurfaceFormat
quickshell:_ZN15ProxyWindowBase16setVisibleDirectEb
quickshell:_ZN15ProxyWindowBase16staticMetaObjectE
quickshell:_ZN15ProxyWindowBase17onSceneGraphErrorEN12QQuickWindow15SceneGraphErrorERK7QString
quickshell:_ZN15ProxyWindowBase17onScreenDestroyedEv
quickshell:_ZN15ProxyWindowBase17setImplicitHeightEi
quickshell:_ZN15ProxyWindowBase17setUpdatesEnabledEb
quickshell:_ZN15ProxyWindowBase18createQQuickWindowEv
quickshell:_ZN15ProxyWindowBase18postCompleteWindowEv
quickshell:_ZN15ProxyWindowBase20implicitWidthChangedEv
quickshell:_ZN15ProxyWindowBase20surfaceFormatChangedEv
quickshell:_ZN15ProxyWindowBase21implicitHeightChangedEv
quickshell:_ZN15ProxyWindowBase21updatesEnabledChangedEv
quickshell:_ZN15ProxyWindowBase22windowTransformChangedEv
quickshell:_ZN15ProxyWindowBase23backerVisibilityChangedEv
quickshell:_ZN15ProxyWindowBase23devicePixelRatioChangedEv
quickshell:_ZN15ProxyWindowBase4dataEv
quickshell:_ZN15ProxyWindowBase6closedEv
quickshell:_ZN15ProxyWindowBase7setMaskEP13PendingRegion
quickshell:_ZN15ProxyWindowBase8onReloadEP7QObject
quickshell:_ZN15ProxyWindowBase8polishedEv
quickshell:_ZN15ProxyWindowBase8setColorE6QColor
quickshell:_ZN15ProxyWindowBase8setWidthEi
quickshell:_ZN15ProxyWindowBase8xChangedEv
quickshell:_ZN15ProxyWindowBase8yChangedEv
quickshell:_ZN15ProxyWindowBase9forObjectEP7QObject
quickshell:_ZN15ProxyWindowBase9onExposedEv
quickshell:_ZN15ProxyWindowBase9setHeightEi
quickshell:_ZN15ProxyWindowBase9setScreenEP20QuickshellScreenInfo
quickshell:_ZN15ProxyWindowBaseC1EP7QObject
quickshell:_ZN15ProxyWindowBaseC2EP7QObject
quickshell:_ZN15ProxyWindowBaseD0Ev
quickshell:_ZN15ProxyWindowBaseD1Ev
quickshell:_ZN15ProxyWindowBaseD2Ev
quickshell:_ZN15QsImageProvider12requestImageERK7QStringP5QSizeRKS3_
quickshell:_ZN15QsSurfaceFormat16staticMetaObjectE
quickshell:_ZN15WindowInterface11maskChangedEv
quickshell:_ZN15WindowInterface11qt_metacallEN11QMetaObject4CallEiPPv
quickshell:_ZN15WindowInterface11qt_metacastEPKc
quickshell:_ZN15WindowInterface12colorChangedEv
quickshell:_ZN15WindowInterface12widthChangedEv
quickshell:_ZN15WindowInterface13heightChangedEv
quickshell:_ZN15WindowInterface13resourcesLostEv
quickshell:_ZN15WindowInterface13screenChangedEv
quickshell:_ZN15WindowInterface14visibleChangedEv
quickshell:_ZN15WindowInterface15windowConnectedEv
quickshell:_ZN15WindowInterface16staticMetaObjectE
quickshell:_ZN15WindowInterface20implicitWidthChangedEv
quickshell:_ZN15WindowInterface20surfaceFormatChangedEv
quickshell:_ZN15WindowInterface21implicitHeightChangedEv
quickshell:_ZN15WindowInterface21qmlAttachedPropertiesEP7QObject
quickshell:_ZN15WindowInterface21updatesEnabledChangedEv
quickshell:_ZN15WindowInterface22windowTransformChangedEv
quickshell:_ZN15WindowInterface23devicePixelRatioChangedEv
quickshell:_ZN15WindowInterface27backingWindowVisibleChangedEv
quickshell:_ZN15WindowInterface6closedEv
quickshell:_ZN15XPanelInterface10setAnchorsE7Anchors
quickshell:_ZN15XPanelInterface10setMarginsE7Margins
quickshell:_ZN15XPanelInterface11qt_metacallEN11QMetaObject4CallEiPPv
quickshell:_ZN15XPanelInterface11qt_metacastEPKc
quickshell:_ZN15XPanelInterface12setFocusableEb
quickshell:_ZN15XPanelInterface15setAboveWindowsEb
quickshell:_ZN15XPanelInterface16setExclusionModeEN13ExclusionMode4EnumE
quickshell:_ZN15XPanelInterface16setExclusiveZoneEi
quickshell:_ZN15XPanelInterface16staticMetaObjectE
quickshell:_ZN15XPanelInterface8onReloadEP7QObject
quickshell:_ZN15XPanelInterfaceC1EP7QObject
quickshell:_ZN15XPanelInterfaceC2EP7QObject
quickshell:_ZN16DBusUPowerDevice11qt_metacallEN11QMetaObject4CallEiPPv
quickshell:_ZN16DBusUPowerDevice11qt_metacastEPKc
quickshell:_ZN16DBusUPowerDevice16staticMetaObjectE
quickshell:_ZN16DBusUPowerDeviceC1ERK7QStringS2_RK15QDBusConnectionP7QObject
quickshell:_ZN16DBusUPowerDeviceC2ERK7QStringS2_RK15QDBusConnectionP7QObject
quickshell:_ZN16DBusUPowerDeviceD0Ev
quickshell:_ZN16DBusUPowerDeviceD1Ev
quickshell:_ZN16DBusUPowerDeviceD2Ev
quickshell:_ZN16DataStreamParser11qt_metacallEN11QMetaObject4CallEiPPv
quickshell:_ZN16DataStreamParser11qt_metacastEPKc
quickshell:_ZN16DataStreamParser16staticMetaObjectE
quickshell:_ZN16DataStreamParser4readE7QString
quickshell:_ZN16EngineGeneration10postReloadEv
quickshell:_ZN16EngineGeneration11qt_metacallEN11QMetaObject4CallEiPPv
quickshell:_ZN16EngineGeneration11qt_metacastEPKc
quickshell:_ZN16EngineGeneration12filesChangedEv
quickshell:_ZN16EngineGeneration13findExtensionEPKv
quickshell:_ZN16EngineGeneration13onFileChangedERK7QString
quickshell:_ZN16EngineGeneration14firePostReloadEv
quickshell:_ZN16EngineGeneration14reloadFinishedEv
quickshell:_ZN16EngineGeneration16onEngineWarningsERK5QListI9QQmlErrorE
quickshell:_ZN16EngineGeneration16setWatchingFilesEb
quickshell:_ZN16EngineGeneration16staticMetaObjectE
quickshell:_ZN16EngineGeneration17currentGenerationEv
quickshell:_ZN16EngineGeneration17registerExtensionEPKvP19EngineGenerationExt
quickshell:_ZN16EngineGeneration18onDirectoryChangedEv
quickshell:_ZN16EngineGeneration20findEngineGenerationEPK10QQmlEngine
quickshell:_ZN16EngineGeneration20findObjectGenerationEPK7QObject
quickshell:_ZN16EngineGeneration20setExtraWatchedFilesERK5QListI7QStringE
quickshell:_ZN16EngineGeneration20updateIncubationModeEv
quickshell:_ZN16EngineGeneration24onTrackedWindowDestroyedEP7QObject
quickshell:_ZN16EngineGeneration31trackWindowIncubationControllerEP12QQuickWindow
quickshell:_ZN16EngineGeneration4exitEi
quickshell:_ZN16EngineGeneration4quitEv
quickshell:_ZN16EngineGeneration7destroyEv
quickshell:_ZN16EngineGeneration8onReloadEPS_
quickshell:_ZN16EngineGeneration8shutdownEv
quickshell:_ZN16EngineGenerationC1ERK4QDir10QmlScanner
quickshell:_ZN16EngineGenerationC1Ev
quickshell:_ZN16EngineGenerationC2ERK4QDir10QmlScanner
quickshell:_ZN16EngineGenerationC2Ev
quickshell:_ZN16EngineGenerationD0Ev
quickshell:_ZN16EngineGenerationD1Ev
quickshell:_ZN16EngineGenerationD2Ev
quickshell:_ZN16GreetdConnection11authFailureE7QString
quickshell:_ZN16GreetdConnection11authMessageE7QStringbbb
quickshell:_ZN16GreetdConnection11qt_metacallEN11QMetaObject4CallEiPPv
quickshell:_ZN16GreetdConnection11qt_metacastEPKc
quickshell:_ZN16GreetdConnection11sendRequestERK11QJsonObject
quickshell:_ZN16GreetdConnection11setInactiveEv
quickshell:_ZN16GreetdConnection11userChangedEv
quickshell:_ZN16GreetdConnection12stateChangedEv
quickshell:_ZN16GreetdConnection13cancelSessionEv
quickshell:_ZN16GreetdConnection13createSessionE7QString
quickshell:_ZN16GreetdConnection13onSocketErrorEN12QLocalSocket16LocalSocketErrorE
quickshell:_ZN16GreetdConnection13onSocketReadyEv
quickshell:_ZN16GreetdConnection13readyToLaunchEv
quickshell:_ZN16GreetdConnection16staticMetaObjectE
quickshell:_ZN16GreetdConnection17onSocketConnectedEv
quickshell:_ZN16GreetdConnection5errorE7QString
quickshell:_ZN16GreetdConnection6launchERK5QListI7QStringES4_b
quickshell:_ZN16GreetdConnection7respondE7QString
quickshell:_ZN16GreetdConnection8instanceEv
quickshell:_ZN16GreetdConnection8launchedEv
quickshell:_ZN16GreetdConnection9setActiveEb
quickshell:_ZN16GreetdConnectionC1Ev
quickshell:_ZN16GreetdConnectionC2Ev
quickshell:_ZN16ProxyPopupWindow10onPolishedEv
quickshell:_ZN16ProxyPopupWindow10repositionEv
quickshell:_ZN16ProxyPopupWindow10setVisibleEb
quickshell:_ZN16ProxyPopupWindow11qt_metacallEN11QMetaObject4CallEiPPv
quickshell:_ZN16ProxyPopupWindow11qt_metacastEPKc
quickshell:_ZN16ProxyPopupWindow12setRelativeXEi
quickshell:_ZN16ProxyPopupWindow12setRelativeYEi
quickshell:_ZN16ProxyPopupWindow14completeWindowEv
quickshell:_ZN16ProxyPopupWindow15setParentWindowEP7QObject
quickshell:_ZN16ProxyPopupWindow16grabFocusChangedEv
quickshell:_ZN16ProxyPopupWindow16relativeXChangedEv
quickshell:_ZN16ProxyPopupWindow16relativeYChangedEv
quickshell:_ZN16ProxyPopupWindow16staticMetaObjectE
quickshell:_ZN16ProxyPopupWindow18postCompleteWindowEv
quickshell:_ZN16ProxyPopupWindow19parentWindowChangedEv
quickshell:_ZN16ProxyPopupWindow20targetVisibleChangedEv
quickshell:_ZN16ProxyPopupWindow21onParentWindowChangedEv
quickshell:_ZN16ProxyPopupWindow6anchorEv
quickshell:_ZN16ProxyPopupWindow8onClosedEv
quickshell:_ZN16ProxyPopupWindow9setScreenEP20QuickshellScreenInfo
quickshell:_ZN16ProxyPopupWindowC1EP7QObject
quickshell:_ZN16ProxyPopupWindowC2EP7QObject
quickshell:_ZN16QsPixmapProvider13requestPixmapERK7QStringP5QSizeRKS3_
quickshell:_ZN16QsUrlInterceptor9interceptERK4QUrlN26QQmlAbstractUrlInterceptor8DataTypeE
quickshell:_ZN16QsWindowAttached11qt_metacallEN11QMetaObject4CallEiPPv
quickshell:_ZN16QsWindowAttached11qt_metacastEPKc
quickshell:_ZN16QsWindowAttached13windowChangedEv
quickshell:_ZN16QsWindowAttached16staticMetaObjectE
quickshell:_ZN16QsWindowAttachedC1EP10QQuickItem
quickshell:_ZN16QsWindowAttachedC2EP10QQuickItem
quickshell:_ZN16QuickshellGlobal10hasVersionEii
quickshell:_ZN16QuickshellGlobal10hasVersionEiiRK5QListI7QStringE
quickshell:_ZN16QuickshellGlobal11qt_metacallEN11QMetaObject4CallEiPPv
quickshell:_ZN16QuickshellGlobal11qt_metacastEPKc
quickshell:_ZN16QuickshellGlobal12execDetachedE5QListI7QStringE
quickshell:_ZN16QuickshellGlobal12execDetachedERKN2qs2io7process14ProcessContextE
quickshell:_ZN16QuickshellGlobal12hasThemeIconERK7QString
quickshell:_ZN16QuickshellGlobal12reloadFailedE7QString
quickshell:_ZN16QuickshellGlobal12screensCountEP16QQmlListPropertyI20QuickshellScreenInfoE
quickshell:_ZN16QuickshellGlobal13clipboardTextEv
quickshell:_ZN16QuickshellGlobal13setWatchFilesEb
quickshell:_ZN16QuickshellGlobal14screensChangedEv
quickshell:_ZN16QuickshellGlobal15reloadCompletedEv
quickshell:_ZN16QuickshellGlobal16lastWindowClosedEv
quickshell:_ZN16QuickshellGlobal16setClipboardTextERK7QString
quickshell:_ZN16QuickshellGlobal16staticMetaObjectE
quickshell:_ZN16QuickshellGlobal17watchFilesChangedEv
quickshell:_ZN16QuickshellGlobal18onClipboardChangedEN10QClipboard4ModeE
quickshell:_ZN16QuickshellGlobal19setWorkingDirectoryE7QString
quickshell:_ZN16QuickshellGlobal20clipboardTextChangedEv
quickshell:_ZN16QuickshellGlobal23workingDirectoryChangedEv
quickshell:_ZN16QuickshellGlobal3envERK7QString
quickshell:_ZN16QuickshellGlobal6createEP10QQmlEngineP9QJSEngine
quickshell:_ZN16QuickshellGlobal6reloadEb
quickshell:_ZN16QuickshellGlobal7screensEv
quickshell:_ZN16QuickshellGlobal8iconPathERK7QString
quickshell:_ZN16QuickshellGlobal8iconPathERK7QStringS2_
quickshell:_ZN16QuickshellGlobal8iconPathERK7QStringb
quickshell:_ZN16QuickshellGlobal8screenAtEP16QQmlListPropertyI20QuickshellScreenInfoEx
quickshell:_ZN16QuickshellGlobalC1EP7QObject
quickshell:_ZN16QuickshellGlobalC2EP7QObject
quickshell:_ZN16QuickshellPlugin11qt_metacallEN11QMetaObject4CallEiPPv
quickshell:_ZN16QuickshellPlugin11qt_metacastEPKc
quickshell:_ZN16QuickshellPlugin16staticMetaObjectE
quickshell:_ZN16ReloadPropagator11qt_metacallEN11QMetaObject4CallEiPPv
quickshell:_ZN16ReloadPropagator11qt_metacastEPKc
quickshell:_ZN16ReloadPropagator15appendComponentEP16QQmlListPropertyI7QObjectEPS1_
quickshell:_ZN16ReloadPropagator16staticMetaObjectE
quickshell:_ZN16ReloadPropagator4dataEv
quickshell:_ZN16ReloadPropagator8onReloadEP7QObject
quickshell:_ZN16TransformWatcher10aDestroyedEv
quickshell:_ZN16TransformWatcher10bDestroyedEv
quickshell:_ZN16TransformWatcher10linkChainsEv
quickshell:_ZN16TransformWatcher11qt_metacallEN11QMetaObject4CallEiPPv
quickshell:_ZN16TransformWatcher11qt_metacastEPKc
quickshell:_ZN16TransformWatcher12recalcChainsEv
quickshell:_ZN16TransformWatcher12unlinkChainsEv
quickshell:_ZN16TransformWatcher13itemDestroyedEv
quickshell:_ZN16TransformWatcher13resolveChainsEP10QQuickItemS1_S1_
quickshell:_ZN16TransformWatcher13resolveChainsEv
quickshell:_ZN16TransformWatcher15setCommonParentEP10QQuickItem
quickshell:_ZN16TransformWatcher16staticMetaObjectE
quickshell:_ZN16TransformWatcher16transformChangedEv
quickshell:_ZN16TransformWatcher19commonParentChangedEv
quickshell:_ZN16TransformWatcher4setAEP10QQuickItem
quickshell:_ZN16TransformWatcher4setBEP10QQuickItem
quickshell:_ZN16TransformWatcher8aChangedEv
quickshell:_ZN16TransformWatcher8bChangedEv
quickshell:_ZN17DBusMenuInterface11qt_metacallEN11QMetaObject4CallEiPPv
quickshell:_ZN17DBusMenuInterface11qt_metacastEPKc
quickshell:_ZN17DBusMenuInterface13LayoutUpdatedEji
quickshell:_ZN17DBusMenuInterface16staticMetaObjectE
quickshell:_ZN17DBusMenuInterface22ItemsPropertiesUpdatedE5QListI22DBusMenuItemPropertiesES0_I25DBusMenuItemPropertyNamesE
quickshell:_ZN17DBusMenuInterface23ItemActivationRequestedEij
quickshell:_ZN17DBusMenuInterfaceC1ERK7QStringS2_RK15QDBusConnectionP7QObject
quickshell:_ZN17DBusMenuInterfaceC2ERK7QStringS2_RK15QDBusConnectionP7QObject
quickshell:_ZN17DBusMenuInterfaceD0Ev
quickshell:_ZN17DBusMenuInterfaceD1Ev
quickshell:_ZN17DBusMenuInterfaceD2Ev
quickshell:_ZN17DBusNMDeviceProxy11qt_metacallEN11QMetaObject4CallEiPPv
quickshell:_ZN17DBusNMDeviceProxy11qt_metacastEPKc
quickshell:_ZN17DBusNMDeviceProxy16staticMetaObjectE
quickshell:_ZN17DBusNMDeviceProxyC1ERK7QStringS2_RK15QDBusConnectionP7QObject
quickshell:_ZN17DBusNMDeviceProxyC2ERK7QStringS2_RK15QDBusConnectionP7QObject
quickshell:_ZN17DBusNMDeviceProxyD0Ev
quickshell:_ZN17DBusNMDeviceProxyD1Ev
quickshell:_ZN17DBusNMDeviceProxyD2Ev
quickshell:_ZN17DBusUPowerService11DeviceAddedERK15QDBusObjectPath
quickshell:_ZN17DBusUPowerService11qt_metacallEN11QMetaObject4CallEiPPv
quickshell:_ZN17DBusUPowerService11qt_metacastEPKc
quickshell:_ZN17DBusUPowerService13DeviceRemovedERK15QDBusObjectPath
quickshell:_ZN17DBusUPowerService16staticMetaObjectE
quickshell:_ZN17DBusUPowerServiceC1ERK7QStringS2_RK15QDBusConnectionP7QObject
quickshell:_ZN17DBusUPowerServiceC2ERK7QStringS2_RK15QDBusConnectionP7QObject
quickshell:_ZN17DBusUPowerServiceD0Ev
quickshell:_ZN17DBusUPowerServiceD1Ev
quickshell:_ZN17DBusUPowerServiceD2Ev
quickshell:_ZN17IconImageProvider13missingPixmapERK5QSize
quickshell:_ZN17IconImageProvider13requestPixmapERK7QStringP5QSizeRKS3_
quickshell:_ZN17IconImageProvider13requestStringERK7QStringS2_S2_
quickshell:_ZN17QuickshellTracked11qt_metacallEN11QMetaObject4CallEiPPv
quickshell:_ZN17QuickshellTracked11qt_metacastEPKc
quickshell:_ZN17QuickshellTracked13updateScreensEv
quickshell:_ZN17QuickshellTracked14screensChangedEv
quickshell:_ZN17QuickshellTracked16staticMetaObjectE
quickshell:_ZN17QuickshellTracked8instanceEv
quickshell:_ZN17QuickshellTrackedC1Ev
quickshell:_ZN17QuickshellTrackedC2Ev
quickshell:_ZN17SingletonRegistry17registerSingletonERK4QUrlP9Singleton
quickshell:_ZN17SingletonRegistry8onReloadEPS_
quickshell:_ZN17XPanelEventFilter11eventFilterEP7QObjectP6QEvent
quickshell:_ZN17XPanelEventFilter11qt_metacallEN11QMetaObject4CallEiPPv
quickshell:_ZN17XPanelEventFilter11qt_metacastEPKc
quickshell:_ZN17XPanelEventFilter14surfaceCreatedEv
quickshell:_ZN17XPanelEventFilter16staticMetaObjectE
quickshell:_ZN18DBusMprisPlayerApp11qt_metacallEN11QMetaObject4CallEiPPv
quickshell:_ZN18DBusMprisPlayerApp11qt_metacastEPKc
quickshell:_ZN18DBusMprisPlayerApp16staticMetaObjectE
quickshell:_ZN18DBusMprisPlayerAppC1ERK7QStringS2_RK15QDBusConnectionP7QObject
quickshell:_ZN18DBusMprisPlayerAppC2ERK7QStringS2_RK15QDBusConnectionP7QObject
quickshell:_ZN18DBusMprisPlayerAppD0Ev
quickshell:_ZN18DBusMprisPlayerAppD1Ev
quickshell:_ZN18DBusMprisPlayerAppD2Ev
quickshell:_ZN18QuickshellSettings11qt_metacallEN11QMetaObject4CallEiPPv
quickshell:_ZN18QuickshellSettings11qt_metacastEPKc
quickshell:_ZN18QuickshellSettings13setWatchFilesEb
quickshell:_ZN18QuickshellSettings16lastWindowClosedEv
quickshell:_ZN18QuickshellSettings16staticMetaObjectE
quickshell:_ZN18QuickshellSettings17watchFilesChangedEv
quickshell:_ZN18QuickshellSettings19setWorkingDirectoryE7QString
quickshell:_ZN18QuickshellSettings23workingDirectoryChangedEv
quickshell:_ZN18QuickshellSettings5resetEv
quickshell:_ZN18QuickshellSettings8instanceEv
quickshell:_ZN18QuickshellSettingsC1Ev
quickshell:_ZN18QuickshellSettingsC2Ev
quickshell:_ZN18SessionLockManager11qt_metacallEN11QMetaObject4CallEiPPv
quickshell:_ZN18SessionLockManager11qt_metacastEPKc
quickshell:_ZN18SessionLockManager13lockAvailableEv
quickshell:_ZN18SessionLockManager13sessionLockedEv
quickshell:_ZN18SessionLockManager16staticMetaObjectE
quickshell:_ZN18SessionLockManager4lockEv
quickshell:_ZN18SessionLockManager6lockedEv
quickshell:_ZN18SessionLockManager6unlockEv
quickshell:_ZN18SessionLockManager8isSecureEv
quickshell:_ZN18SessionLockManager8unlockedEv
quickshell:_ZN18UntypedObjectModel11qt_metacallEN11QMetaObject4CallEiPPv
quickshell:_ZN18UntypedObjectModel11qt_metacastEPKc
quickshell:_ZN18UntypedObjectModel13emptyInstanceEv
quickshell:_ZN18UntypedObjectModel13valuesChangedEv
quickshell:_ZN18UntypedObjectModel16objectRemovedPreEP7QObjectx
quickshell:_ZN18UntypedObjectModel16staticMetaObjectE
quickshell:_ZN18UntypedObjectModel17objectInsertedPreEP7QObjectx
quickshell:_ZN18UntypedObjectModel17objectRemovedPostEP7QObjectx
quickshell:_ZN18UntypedObjectModel18objectInsertedPostEP7QObjectx
quickshell:_ZN19DBusNMWirelessProxy11qt_metacallEN11QMetaObject4CallEiPPv
quickshell:_ZN19DBusNMWirelessProxy11qt_metacastEPKc
quickshell:_ZN19DBusNMWirelessProxy16AccessPointAddedERK15QDBusObjectPath
quickshell:_ZN19DBusNMWirelessProxy16staticMetaObjectE
quickshell:_ZN19DBusNMWirelessProxy18AccessPointRemovedERK15QDBusObjectPath
quickshell:_ZN19DBusNMWirelessProxyC1ERK7QStringS2_RK15QDBusConnectionP7QObject
quickshell:_ZN19DBusNMWirelessProxyC2ERK7QStringS2_RK15QDBusConnectionP7QObject
quickshell:_ZN19DBusNMWirelessProxyD0Ev
quickshell:_ZN19DBusNMWirelessProxyD1Ev
quickshell:_ZN19DBusNMWirelessProxyD2Ev
quickshell:_ZN19DesktopEntryManager11qt_metacallEN11QMetaObject4CallEiPPv
quickshell:_ZN19DesktopEntryManager11qt_metacastEPKc
quickshell:_ZN19DesktopEntryManager12applicationsEv
quickshell:_ZN19DesktopEntryManager12desktopPathsEv
quickshell:_ZN19DesktopEntryManager15heuristicLookupERK7QString
quickshell:_ZN19DesktopEntryManager15onScanCompletedERK5QListI22ParsedDesktopEntryDataE
quickshell:_ZN19DesktopEntryManager16staticMetaObjectE
quickshell:_ZN19DesktopEntryManager17handleFileChangesEv
quickshell:_ZN19DesktopEntryManager18scanDesktopEntriesEv
quickshell:_ZN19DesktopEntryManager19applicationsChangedEv
quickshell:_ZN19DesktopEntryManager4byIdERK7QString
quickshell:_ZN19DesktopEntryManager8instanceEv
quickshell:_ZN19DesktopEntryManagerC1Ev
quickshell:_ZN19DesktopEntryManagerC2Ev
quickshell:_ZN19DesktopEntryMonitor11qt_metacallEN11QMetaObject4CallEiPPv
quickshell:_ZN19DesktopEntryMonitor11qt_metacastEPKc
quickshell:_ZN19DesktopEntryMonitor12scanAndWatchERK7QString
quickshell:_ZN19DesktopEntryMonitor14processChangesEv
quickshell:_ZN19DesktopEntryMonitor15startMonitoringEv
quickshell:_ZN19DesktopEntryMonitor16staticMetaObjectE
quickshell:_ZN19DesktopEntryMonitor18onDirectoryChangedERK7QString
quickshell:_ZN19DesktopEntryMonitor21desktopEntriesChangedEv
quickshell:_ZN19DesktopEntryMonitorC1EP7QObject
quickshell:_ZN19DesktopEntryMonitorC2EP7QObject
quickshell:_ZN19DesktopEntryScanner13scanDirectoryERK4QDirRK7QStringR5QListI22ParsedDesktopEntryDataE
quickshell:_ZN19DesktopEntryScanner3runEv
quickshell:_ZN19DesktopEntryScannerC1EP19DesktopEntryManager
quickshell:_ZN19DesktopEntryScannerC2EP19DesktopEntryManager
quickshell:_ZN19LockWindowExtension10setVisibleEv
quickshell:_ZN19LockWindowExtension11qt_metacallEN11QMetaObject4CallEiPPv
quickshell:_ZN19LockWindowExtension11qt_metacastEPKc
quickshell:_ZN19LockWindowExtension16staticMetaObjectE
quickshell:_ZN19LockWindowExtension3getEP7QWindow
quickshell:_ZN19LockWindowExtension6attachEP7QWindowP18SessionLockManager
quickshell:_ZN19LockWindowExtension6lockedEv
quickshell:_ZN19LockWindowExtension8unlockedEv
quickshell:_ZN19LockWindowExtensionD0Ev
quickshell:_ZN19LockWindowExtensionD1Ev
quickshell:_ZN19LockWindowExtensionD2Ev
quickshell:_ZN19ProxyFloatingWindow11qt_metacallEN11QMetaObject4CallEiPPv
quickshell:_ZN19ProxyFloatingWindow11qt_metacastEPKc
quickshell:_ZN19ProxyFloatingWindow11trySetWidthEi
quickshell:_ZN19ProxyFloatingWindow12titleChangedEv
quickshell:_ZN19ProxyFloatingWindow12trySetHeightEi
quickshell:_ZN19ProxyFloatingWindow13connectWindowEv
quickshell:_ZN19ProxyFloatingWindow14onTitleChangedEv
quickshell:_ZN19ProxyFloatingWindow16staticMetaObjectE
quickshell:_ZN19ProxyFloatingWindow18maximumSizeChangedEv
quickshell:_ZN19ProxyFloatingWindow18minimumSizeChangedEv
quickshell:_ZN19ProxyFloatingWindow20onMaximumSizeChangedEv
quickshell:_ZN19ProxyFloatingWindow20onMinimumSizeChangedEv
quickshell:_ZN19ProxyWindowAttached11qt_metacallEN11QMetaObject4CallEiPPv
quickshell:_ZN19ProxyWindowAttached11qt_metacastEPKc
quickshell:_ZN19ProxyWindowAttached12updateWindowEv
quickshell:_ZN19ProxyWindowAttached16staticMetaObjectE
quickshell:_ZN19ProxyWindowAttached9setWindowEP15ProxyWindowBase
quickshell:_ZN19ProxyWindowAttachedC1EP10QQuickItem
quickshell:_ZN19ProxyWindowAttachedC2EP10QQuickItem
quickshell:_ZN19Quickshell_I3Plugin11qt_metacallEN11QMetaObject4CallEiPPv
quickshell:_ZN19Quickshell_I3Plugin11qt_metacastEPKc
quickshell:_ZN19Quickshell_I3Plugin16staticMetaObjectE
quickshell:_ZN19Quickshell_IoPlugin11qt_metacallEN11QMetaObject4CallEiPPv
quickshell:_ZN19Quickshell_IoPlugin11qt_metacastEPKc
quickshell:_ZN19Quickshell_IoPlugin16staticMetaObjectE
quickshell:_ZN20PanelWindowInterface11qt_metacallEN11QMetaObject4CallEiPPv
quickshell:_ZN20PanelWindowInterface11qt_metacastEPKc
quickshell:_ZN20PanelWindowInterface14anchorsChangedEv
quickshell:_ZN20PanelWindowInterface14marginsChangedEv
quickshell:_ZN20PanelWindowInterface16focusableChangedEv
quickshell:_ZN20PanelWindowInterface16staticMetaObjectE
quickshell:_ZN20PanelWindowInterface19aboveWindowsChangedEv
quickshell:_ZN20PanelWindowInterface20exclusionModeChangedEv
quickshell:_ZN20PanelWindowInterface20exclusiveZoneChangedEv
quickshell:_ZN20PersistentProperties11qt_metacallEN11QMetaObject4CallEiPPv
quickshell:_ZN20PersistentProperties11qt_metacastEPKc
quickshell:_ZN20PersistentProperties16staticMetaObjectE
quickshell:_ZN20PersistentProperties6loadedEv
quickshell:_ZN20PersistentProperties8onReloadEP7QObject
quickshell:_ZN20PersistentProperties8reloadedEv
quickshell:_ZN20QSWaylandSessionLock11qt_metacallEN11QMetaObject4CallEiPPv
quickshell:_ZN20QSWaylandSessionLock11qt_metacastEPKc
quickshell:_ZN20QSWaylandSessionLock16compositorLockedEv
quickshell:_ZN20QSWaylandSessionLock16staticMetaObjectE
quickshell:_ZN20QSWaylandSessionLock26ext_session_lock_v1_lockedEv
quickshell:_ZN20QSWaylandSessionLock28ext_session_lock_v1_finishedEv
quickshell:_ZN20QSWaylandSessionLock6unlockEv
quickshell:_ZN20QSWaylandSessionLock8unlockedEv
quickshell:_ZN20QSWaylandSessionLockC1EP27QSWaylandSessionLockManagerP19ext_session_lock_v1
quickshell:_ZN20QSWaylandSessionLockC2EP27QSWaylandSessionLockManagerP19ext_session_lock_v1
quickshell:_ZN20QSWaylandSessionLockD0Ev
quickshell:_ZN20QSWaylandSessionLockD1Ev
quickshell:_ZN20QSWaylandSessionLockD2Ev
quickshell:_ZN20QsIndexedImageHandle12imageChangedEv
quickshell:_ZN20QsInterceptDataReply11qt_metacallEN11QMetaObject4CallEiPPv
quickshell:_ZN20QsInterceptDataReply11qt_metacastEPKc
quickshell:_ZN20QsInterceptDataReply16staticMetaObjectE
quickshell:_ZN20QsInterceptDataReply8readDataEPcx
quickshell:_ZN20QsInterceptDataReplyC1ERK7QStringP7QObject
quickshell:_ZN20QsInterceptDataReplyC2ERK7QStringP7QObject
quickshell:_ZN20QuickshellScreenInfo11qt_metacallEN11QMetaObject4CallEiPPv
quickshell:_ZN20QuickshellScreenInfo11qt_metacastEPKc
quickshell:_ZN20QuickshellScreenInfo15geometryChangedEv
quickshell:_ZN20QuickshellScreenInfo15screenDestroyedEv
quickshell:_ZN20QuickshellScreenInfo16staticMetaObjectE
quickshell:_ZN20QuickshellScreenInfo18orientationChangedEv
quickshell:_ZN20QuickshellScreenInfo25primaryOrientationChangedEv
quickshell:_ZN20QuickshellScreenInfo26logicalPixelDensityChangedEv
quickshell:_ZN20QuickshellScreenInfo27physicalPixelDensityChangedEv
quickshell:_ZN20QuickshellScreenInfoC1EP7QObjectP7QScreen
quickshell:_ZN20QuickshellScreenInfoC2EP7QObjectP7QScreen
quickshell:_ZN20Quickshell_DWLPlugin11qt_metacallEN11QMetaObject4CallEiPPv
quickshell:_ZN20Quickshell_DWLPlugin11qt_metacastEPKc
quickshell:_ZN20Quickshell_DWLPlugin16staticMetaObjectE
quickshell:_ZN20Quickshell_X11Plugin11qt_metacallEN11QMetaObject4CallEiPPv
quickshell:_ZN20Quickshell_X11Plugin11qt_metacastEPKc
quickshell:_ZN20Quickshell_X11Plugin16staticMetaObjectE
quickshell:_ZN20WlSessionLockSurface11qt_metacallEN11QMetaObject4CallEiPPv
quickshell:_ZN20WlSessionLockSurface11qt_metacastEPKc
quickshell:_ZN20WlSessionLockSurface12colorChangedEv
quickshell:_ZN20WlSessionLockSurface12disownWindowEv
quickshell:_ZN20WlSessionLockSurface12widthChangedEv
quickshell:_ZN20WlSessionLockSurface13heightChangedEv
quickshell:_ZN20WlSessionLockSurface13screenChangedEv
quickshell:_ZN20WlSessionLockSurface14onWidthChangedEv
quickshell:_ZN20WlSessionLockSurface14visibleChangedEv
quickshell:_ZN20WlSessionLockSurface15onHeightChangedEv
quickshell:_ZN20WlSessionLockSurface16staticMetaObjectE
quickshell:_ZN20WlSessionLockSurface17onScreenDestroyedEv
quickshell:_ZN20WlSessionLockSurface4dataEv
quickshell:_ZN20WlSessionLockSurface4showEv
quickshell:_ZN20WlSessionLockSurface6attachEv
quickshell:_ZN20WlSessionLockSurface8onReloadEP7QObject
quickshell:_ZN20WlSessionLockSurface8setColorE6QColor
quickshell:_ZN20WlSessionLockSurface9setScreenEP7QScreen
quickshell:_ZN20WlSessionLockSurfaceC1EP7QObject
quickshell:_ZN20WlSessionLockSurfaceC2EP7QObject
quickshell:_ZN20WlSessionLockSurfaceD0Ev
quickshell:_ZN20WlSessionLockSurfaceD1Ev
quickshell:_ZN20WlSessionLockSurfaceD2Ev
quickshell:_ZN21QmlCacheGeneratedCode34_qt_qml_Quickshell_Io_FileView_qml17aotBuiltFunctionsE
quickshell:_ZN21QmlCacheGeneratedCode34_qt_qml_Quickshell_Io_FileView_qml7qmlDataE
quickshell:_ZN21QmlCacheGeneratedCode40_qt_qml_Quickshell_Widgets_IconImage_qml17aotBuiltFunctionsE
quickshell:_ZN21QmlCacheGeneratedCode40_qt_qml_Quickshell_Widgets_IconImage_qml7qmlDataE
quickshell:_ZN21QmlCacheGeneratedCode42_qt_qml_Quickshell_Widgets_WrapperItem_qml17aotBuiltFunctionsE
quickshell:_ZN21QmlCacheGeneratedCode42_qt_qml_Quickshell_Widgets_WrapperItem_qml7qmlDataE
quickshell:_ZN21QmlCacheGeneratedCode42_qt_qml_Quickshell__InternalUi_Tooltip_qml17aotBuiltFunctionsE
quickshell:_ZN21QmlCacheGeneratedCode42_qt_qml_Quickshell__InternalUi_Tooltip_qml7qmlDataE
quickshell:_ZN21QmlCacheGeneratedCode46_qt_qml_Quickshell__InternalUi_ReloadPopup_qml17aotBuiltFunctionsE
quickshell:_ZN21QmlCacheGeneratedCode46_qt_qml_Quickshell__InternalUi_ReloadPopup_qml7qmlDataE
quickshell:_ZN21QmlCacheGeneratedCode47_qt_qml_Quickshell_Widgets_WrapperMouseArea_qml17aotBuiltFunctionsE
quickshell:_ZN21QmlCacheGeneratedCode47_qt_qml_Quickshell_Widgets_WrapperMouseArea_qml7qmlDataE
quickshell:_ZN21QmlCacheGeneratedCode47_qt_qml_Quickshell_Widgets_WrapperRectangle_qml17aotBuiltFunctionsE
quickshell:_ZN21QmlCacheGeneratedCode47_qt_qml_Quickshell_Widgets_WrapperRectangle_qml7qmlDataE
quickshell:_ZN21QmlCacheGeneratedCode48_qt_qml_Quickshell_Widgets_ClippingRectangle_qml17aotBuiltFunctionsE
quickshell:_ZN21QmlCacheGeneratedCode48_qt_qml_Quickshell_Widgets_ClippingRectangle_qml7qmlDataE
quickshell:_ZN21QmlCacheGeneratedCode55_qt_qml_Quickshell_Widgets_ClippingWrapperRectangle_qml17aotBuiltFunctionsE
quickshell:_ZN21QmlCacheGeneratedCode55_qt_qml_Quickshell_Widgets_ClippingWrapperRectangle_qml7qmlDataE
quickshell:_ZN21QmlCacheGeneratedCode63_qt_qml_Quickshell_Widgets_ClippingWrapperRectangleInternal_qml17aotBuiltFunctionsE
quickshell:_ZN21QmlCacheGeneratedCode63_qt_qml_Quickshell_Widgets_ClippingWrapperRectangleInternal_qml7qmlDataE
quickshell:_ZN21Quickshell_NiriPlugin11qt_metacallEN11QMetaObject4CallEiPPv
quickshell:_ZN21Quickshell_NiriPlugin11qt_metacastEPKc
quickshell:_ZN21Quickshell_NiriPlugin16staticMetaObjectE
quickshell:_ZN22DBusNMAccessPointProxy11qt_metacallEN11QMetaObject4CallEiPPv
quickshell:_ZN22DBusNMAccessPointProxy11qt_metacastEPKc
quickshell:_ZN22DBusNMAccessPointProxy16staticMetaObjectE
quickshell:_ZN22DBusNMAccessPointProxyC1ERK7QStringS2_RK15QDBusConnectionP7QObject
quickshell:_ZN22DBusNMAccessPointProxyC2ERK7QStringS2_RK15QDBusConnectionP7QObject
quickshell:_ZN22DBusNMAccessPointProxyD0Ev
quickshell:_ZN22DBusNMAccessPointProxyD1Ev
quickshell:_ZN22DBusNMAccessPointProxyD2Ev
quickshell:_ZN22DBusNotificationServer11qt_metacallEN11QMetaObject4CallEiPPv
quickshell:_ZN22DBusNotificationServer11qt_metacastEPKc
quickshell:_ZN22DBusNotificationServer13ActionInvokedEjRK7QString
quickshell:_ZN22DBusNotificationServer15ActivationTokenEjRK7QString
quickshell:_ZN22DBusNotificationServer15GetCapabilitiesEv
quickshell:_ZN22DBusNotificationServer16staticMetaObjectE
quickshell:_ZN22DBusNotificationServer17CloseNotificationEj
quickshell:_ZN22DBusNotificationServer18NotificationClosedEjj
quickshell:_ZN22DBusNotificationServer19NotificationRepliedEjRK7QString
quickshell:_ZN22DBusNotificationServer20GetServerInformationER7QStringS1_S1_
quickshell:_ZN22DBusNotificationServer6NotifyERK7QStringjS2_S2_S2_RK5QListIS0_ERK4QMapIS0_8QVariantEi
quickshell:_ZN22DBusNotificationServerC1EPN2qs7service13notifications18NotificationServerE
quickshell:_ZN22DBusNotificationServerC2EPN2qs7service13notifications18NotificationServerE
quickshell:_ZN22DBusNotificationServerD0Ev
quickshell:_ZN22DBusNotificationServerD1Ev
quickshell:_ZN22DBusNotificationServerD2Ev
quickshell:_ZN22DBusStatusNotifierItem10NewToolTipEv
quickshell:_ZN22DBusStatusNotifierItem11qt_metacallEN11QMetaObject4CallEiPPv
quickshell:_ZN22DBusStatusNotifierItem11qt_metacastEPKc
quickshell:_ZN22DBusStatusNotifierItem14NewOverlayIconEv
quickshell:_ZN22DBusStatusNotifierItem16NewAttentionIconEv
quickshell:_ZN22DBusStatusNotifierItem16staticMetaObjectE
quickshell:_ZN22DBusStatusNotifierItem7NewIconEv
quickshell:_ZN22DBusStatusNotifierItem8NewTitleEv
quickshell:_ZN22DBusStatusNotifierItem9NewStatusERK7QString
quickshell:_ZN22DBusStatusNotifierItemC1ERK7QStringS2_RK15QDBusConnectionP7QObject
quickshell:_ZN22DBusStatusNotifierItemC2ERK7QStringS2_RK15QDBusConnectionP7QObject
quickshell:_ZN22DBusStatusNotifierItemD0Ev
quickshell:_ZN22DBusStatusNotifierItemD1Ev
quickshell:_ZN22DBusStatusNotifierItemD2Ev
quickshell:_ZN22ProxyWindowContentItem11qt_metacallEN11QMetaObject4CallEiPPv
quickshell:_ZN22ProxyWindowContentItem11qt_metacastEPKc
quickshell:_ZN22ProxyWindowContentItem12updatePolishEv
quickshell:_ZN22ProxyWindowContentItem16staticMetaObjectE
quickshell:_ZN22ProxyWindowContentItem8polishedEv
quickshell:_ZN22QsIncubationController10timerEventEP11QTimerEvent
quickshell:_ZN22QsIncubationController11qt_metacallEN11QMetaObject4CallEiPPv
quickshell:_ZN22QsIncubationController11qt_metacastEPKc
quickshell:_ZN22QsIncubationController13incubateLaterEv
quickshell:_ZN22QsIncubationController16animationStoppedEv
quickshell:_ZN22QsIncubationController16staticMetaObjectE
quickshell:_ZN22QsIncubationController17setIncubationModeEb
quickshell:_ZN22QsIncubationController20updateIncubationTimeEv
quickshell:_ZN22QsIncubationController28incubatingObjectCountChangedEi
quickshell:_ZN22QsIncubationController8incubateEv
quickshell:_ZN22QsIncubationController8initLoopEv
quickshell:_ZN22WaylandPopupPositioner10repositionEP11PopupAnchorP7QWindowb
quickshell:_ZN22WaylandPopupPositioner8setFlagsEP11PopupAnchorP7QWindow
quickshell:_ZN23ClippingRectangleBorder16staticMetaObjectE
quickshell:_ZN23ColorQuantizerOperation11qt_metacallEN11QMetaObject4CallEiPPv
quickshell:_ZN23ColorQuantizerOperation11qt_metacastEPKc
quickshell:_ZN23ColorQuantizerOperation12quantizationER5QListI6QColorEdRK14QAtomicIntegerIbE
quickshell:_ZN23ColorQuantizerOperation13quantizeImageERK14QAtomicIntegerIbE
quickshell:_ZN23ColorQuantizerOperation16staticMetaObjectE
quickshell:_ZN23ColorQuantizerOperation21findBiggestColorRangeERK5QListI6QColorE
quickshell:_ZN23ColorQuantizerOperation3runEv
quickshell:_ZN23ColorQuantizerOperation4doneE5QListI6QColorE
quickshell:_ZN23ColorQuantizerOperation8finishedEv
quickshell:_ZN23ColorQuantizerOperation9finishRunEv
quickshell:_ZN23ColorQuantizerOperation9tryCancelEv
quickshell:_ZN23ColorQuantizerOperationC1EP4QUrldd
quickshell:_ZN23ColorQuantizerOperationC2EP4QUrldd
quickshell:_ZN23DBusNetworkManagerProxy11DeviceAddedERK15QDBusObjectPath
quickshell:_ZN23DBusNetworkManagerProxy11qt_metacallEN11QMetaObject4CallEiPPv
quickshell:_ZN23DBusNetworkManagerProxy11qt_metacastEPKc
quickshell:_ZN23DBusNetworkManagerProxy13DeviceRemovedERK15QDBusObjectPath
quickshell:_ZN23DBusNetworkManagerProxy16staticMetaObjectE
quickshell:_ZN23DBusNetworkManagerProxyC1ERK7QStringS2_RK15QDBusConnectionP7QObject
quickshell:_ZN23DBusNetworkManagerProxyC2ERK7QStringS2_RK15QDBusConnectionP7QObject
quickshell:_ZN23DBusNetworkManagerProxyD0Ev
quickshell:_ZN23DBusNetworkManagerProxyD1Ev
quickshell:_ZN23DBusNetworkManagerProxyD2Ev
quickshell:_ZN23DBusPropertiesInterface11qt_metacallEN11QMetaObject4CallEiPPv
quickshell:_ZN23DBusPropertiesInterface11qt_metacastEPKc
quickshell:_ZN23DBusPropertiesInterface16staticMetaObjectE
quickshell:_ZN23DBusPropertiesInterface17PropertiesChangedERK7QStringRK4QMapIS0_8QVariantERK5QListIS0_E
quickshell:_ZN23DBusPropertiesInterfaceC1ERK7QStringS2_RK15QDBusConnectionP7QObject
quickshell:_ZN23DBusPropertiesInterfaceC2ERK7QStringS2_RK15QDBusConnectionP7QObject
quickshell:_ZN23DBusPropertiesInterfaceD0Ev
quickshell:_ZN23DBusPropertiesInterfaceD1Ev
quickshell:_ZN23DBusPropertiesInterfaceD2Ev
quickshell:_ZN23FloatingWindowInterface11qt_metacallEN11QMetaObject4CallEiPPv
quickshell:_ZN23FloatingWindowInterface11qt_metacastEPKc
quickshell:_ZN23FloatingWindowInterface12setMaximizedEb
quickshell:_ZN23FloatingWindowInterface12setMinimizedEb
quickshell:_ZN23FloatingWindowInterface12titleChangedEv
quickshell:_ZN23FloatingWindowInterface13setFullscreenEb
quickshell:_ZN23FloatingWindowInterface16maximizedChangedEv
quickshell:_ZN23FloatingWindowInterface16minimizedChangedEv
quickshell:_ZN23FloatingWindowInterface16staticMetaObjectE
quickshell:_ZN23FloatingWindowInterface17fullscreenChangedEv
quickshell:_ZN23FloatingWindowInterface17onWindowConnectedEv
quickshell:_ZN23FloatingWindowInterface18maximumSizeChangedEv
quickshell:_ZN23FloatingWindowInterface18minimumSizeChangedEv
quickshell:_ZN23FloatingWindowInterface20onWindowStateChangedEv
quickshell:_ZN23FloatingWindowInterface8onReloadEP7QObject
quickshell:_ZN23FloatingWindowInterfaceC1EP7QObject
quickshell:_ZN23FloatingWindowInterfaceC2EP7QObject
quickshell:_ZN24DBusBluezDeviceInterface11qt_metacallEN11QMetaObject4CallEiPPv
quickshell:_ZN24DBusBluezDeviceInterface11qt_metacastEPKc
quickshell:_ZN24DBusBluezDeviceInterface16staticMetaObjectE
quickshell:_ZN24DBusBluezDeviceInterfaceC1ERK7QStringS2_RK15QDBusConnectionP7QObject
quickshell:_ZN24DBusBluezDeviceInterfaceC2ERK7QStringS2_RK15QDBusConnectionP7QObject
quickshell:_ZN24DBusBluezDeviceInterfaceD0Ev
quickshell:_ZN24DBusBluezDeviceInterfaceD1Ev
quickshell:_ZN24DBusBluezDeviceInterfaceD2Ev
quickshell:_ZN24Quickshell_I3__IpcPlugin11qt_metacallEN11QMetaObject4CallEiPPv
quickshell:_ZN24Quickshell_I3__IpcPlugin11qt_metacastEPKc
quickshell:_ZN24Quickshell_I3__IpcPlugin16staticMetaObjectE
quickshell:_ZN24Quickshell_WaylandPlugin11qt_metacallEN11QMetaObject4CallEiPPv
quickshell:_ZN24Quickshell_WaylandPlugin11qt_metacastEPKc
quickshell:_ZN24Quickshell_WaylandPlugin16staticMetaObjectE
quickshell:_ZN24Quickshell_WidgetsPlugin11qt_metacallEN11QMetaObject4CallEiPPv
quickshell:_ZN24Quickshell_WidgetsPlugin11qt_metacastEPKc
quickshell:_ZN24Quickshell_WidgetsPlugin16staticMetaObjectE
quickshell:_ZN24Quickshell__WindowPlugin11qt_metacallEN11QMetaObject4CallEiPPv
quickshell:_ZN24Quickshell__WindowPlugin11qt_metacastEPKc
quickshell:_ZN24Quickshell__WindowPlugin16staticMetaObjectE
quickshell:_ZN25DBusBluezAdapterInterface11qt_metacallEN11QMetaObject4CallEiPPv
quickshell:_ZN25DBusBluezAdapterInterface11qt_metacastEPKc
quickshell:_ZN25DBusBluezAdapterInterface16staticMetaObjectE
quickshell:_ZN25DBusBluezAdapterInterfaceC1ERK7QStringS2_RK15QDBusConnectionP7QObject
quickshell:_ZN25DBusBluezAdapterInterfaceC2ERK7QStringS2_RK15QDBusConnectionP7QObject
quickshell:_ZN25DBusBluezAdapterInterfaceD0Ev
quickshell:_ZN25DBusBluezAdapterInterfaceD1Ev
quickshell:_ZN25DBusBluezAdapterInterfaceD2Ev
quickshell:_ZN25DBusStatusNotifierWatcher11qt_metacallEN11QMetaObject4CallEiPPv
quickshell:_ZN25DBusStatusNotifierWatcher11qt_metacastEPKc
quickshell:_ZN25DBusStatusNotifierWatcher16staticMetaObjectE
quickshell:_ZN25DBusStatusNotifierWatcher28StatusNotifierHostRegisteredEv
quickshell:_ZN25DBusStatusNotifierWatcher28StatusNotifierItemRegisteredERK7QString
quickshell:_ZN25DBusStatusNotifierWatcher30StatusNotifierHostUnregisteredEv
quickshell:_ZN25DBusStatusNotifierWatcher30StatusNotifierItemUnregisteredERK7QString
quickshell:_ZN25DBusStatusNotifierWatcherC1ERK7QStringS2_RK15QDBusConnectionP7QObject
quickshell:_ZN25DBusStatusNotifierWatcherC2ERK7QStringS2_RK15QDBusConnectionP7QObject
quickshell:_ZN25DBusStatusNotifierWatcherD0Ev
quickshell:_ZN25DBusStatusNotifierWatcherD1Ev
quickshell:_ZN25DBusStatusNotifierWatcherD2Ev
quickshell:_ZN25Quickshell_DBusMenuPlugin11qt_metacallEN11QMetaObject4CallEiPPv
quickshell:_ZN25Quickshell_DBusMenuPlugin11qt_metacastEPKc
quickshell:_ZN25Quickshell_DBusMenuPlugin16staticMetaObjectE
quickshell:_ZN25Quickshell_HyprlandPlugin11qt_metacallEN11QMetaObject4CallEiPPv
quickshell:_ZN25Quickshell_HyprlandPlugin11qt_metacastEPKc
quickshell:_ZN25Quickshell_HyprlandPlugin16staticMetaObjectE
quickshell:_ZN26DBusObjectManagerInterface11qt_metacallEN11QMetaObject4CallEiPPv
quickshell:_ZN26DBusObjectManagerInterface11qt_metacastEPKc
quickshell:_ZN26DBusObjectManagerInterface15InterfacesAddedERK15QDBusObjectPath5QHashI7QString4QMapIS4_8QVariantEE
quickshell:_ZN26DBusObjectManagerInterface16staticMetaObjectE
quickshell:_ZN26DBusObjectManagerInterface17InterfacesRemovedERK15QDBusObjectPathRK5QListI7QStringE
quickshell:_ZN26DBusObjectManagerInterfaceC1ERK7QStringS2_RK15QDBusConnectionP7QObject
quickshell:_ZN26DBusObjectManagerInterfaceC2ERK7QStringS2_RK15QDBusConnectionP7QObject
quickshell:_ZN26DBusObjectManagerInterfaceD0Ev
quickshell:_ZN26DBusObjectManagerInterfaceD1Ev
quickshell:_ZN26DBusObjectManagerInterfaceD2Ev
quickshell:_ZN26Quickshell_BluetoothPlugin11qt_metacallEN11QMetaObject4CallEiPPv
quickshell:_ZN26Quickshell_BluetoothPlugin11qt_metacastEPKc
quickshell:_ZN26Quickshell_BluetoothPlugin16staticMetaObjectE
quickshell:_ZN26Quickshell_Niri__IpcPlugin11qt_metacallEN11QMetaObject4CallEiPPv
quickshell:_ZN26Quickshell_Niri__IpcPlugin11qt_metacastEPKc
quickshell:_ZN26Quickshell_Niri__IpcPlugin16staticMetaObjectE
quickshell:_ZN27BoundComponentPropertyProxy10onNotifiedEv
quickshell:_ZN27BoundComponentPropertyProxy11qt_metacallEN11QMetaObject4CallEiPPv
quickshell:_ZN27BoundComponentPropertyProxy11qt_metacastEPKc
quickshell:_ZN27BoundComponentPropertyProxy16staticMetaObjectE
quickshell:_ZN27BoundComponentPropertyProxyC1EP7QObjectS1_13QMetaPropertyS2_
quickshell:_ZN27BoundComponentPropertyProxyC2EP7QObjectS1_13QMetaPropertyS2_
quickshell:_ZN27DBusNMActiveConnectionProxy11qt_metacallEN11QMetaObject4CallEiPPv
quickshell:_ZN27DBusNMActiveConnectionProxy11qt_metacastEPKc
quickshell:_ZN27DBusNMActiveConnectionProxy12StateChangedEjj
quickshell:_ZN27DBusNMActiveConnectionProxy16staticMetaObjectE
quickshell:_ZN27DBusNMActiveConnectionProxyC1ERK7QStringS2_RK15QDBusConnectionP7QObject
quickshell:_ZN27DBusNMActiveConnectionProxyC2ERK7QStringS2_RK15QDBusConnectionP7QObject
quickshell:_ZN27DBusNMActiveConnectionProxyD0Ev
quickshell:_ZN27DBusNMActiveConnectionProxyD1Ev
quickshell:_ZN27DBusNMActiveConnectionProxyD2Ev
quickshell:_ZN27QSWaylandSessionLockManager11acquireLockEv
quickshell:_ZN27QSWaylandSessionLockManagerC1Ev
quickshell:_ZN27QSWaylandSessionLockManagerC2Ev
quickshell:_ZN27QSWaylandSessionLockManagerD0Ev
quickshell:_ZN27QSWaylandSessionLockManagerD1Ev
quickshell:_ZN27QSWaylandSessionLockManagerD2Ev
quickshell:_ZN27QSWaylandSessionLockSurface10setVisibleEv
quickshell:_ZN27QSWaylandSessionLockSurface12setExtensionEP19LockWindowExtension
quickshell:_ZN27QSWaylandSessionLockSurface14applyConfigureEv
quickshell:_ZN27QSWaylandSessionLockSurface37ext_session_lock_surface_v1_configureEjjj
quickshell:_ZN27QSWaylandSessionLockSurfaceC1EPN15QtWaylandClient14QWaylandWindowE
quickshell:_ZN27QSWaylandSessionLockSurfaceC2EPN15QtWaylandClient14QWaylandWindowE
quickshell:_ZN27QSWaylandSessionLockSurfaceD0Ev
quickshell:_ZN27QSWaylandSessionLockSurfaceD1Ev
quickshell:_ZN27QSWaylandSessionLockSurfaceD2Ev
quickshell:_ZN27Quickshell_NetworkingPlugin11qt_metacallEN11QMetaObject4CallEiPPv
quickshell:_ZN27Quickshell_NetworkingPlugin11qt_metacastEPKc
quickshell:_ZN27Quickshell_NetworkingPlugin16staticMetaObjectE
quickshell:_ZN28Quickshell__InternalUiPlugin11qt_metacallEN11QMetaObject4CallEiPPv
quickshell:_ZN28Quickshell__InternalUiPlugin11qt_metacastEPKc
quickshell:_ZN28Quickshell__InternalUiPlugin16staticMetaObjectE
quickshell:_ZN28StatusNotifierWatcherAdaptor11qt_metacallEN11QMetaObject4CallEiPPv
quickshell:_ZN28StatusNotifierWatcherAdaptor11qt_metacastEPKc
quickshell:_ZN28StatusNotifierWatcherAdaptor16staticMetaObjectE
quickshell:_ZN28StatusNotifierWatcherAdaptor26RegisterStatusNotifierHostERK7QString
quickshell:_ZN28StatusNotifierWatcherAdaptor26RegisterStatusNotifierItemERK7QString
quickshell:_ZN28StatusNotifierWatcherAdaptor28StatusNotifierHostRegisteredEv
quickshell:_ZN28StatusNotifierWatcherAdaptor28StatusNotifierItemRegisteredERK7QString
quickshell:_ZN28StatusNotifierWatcherAdaptor30StatusNotifierHostUnregisteredEv
quickshell:_ZN28StatusNotifierWatcherAdaptor30StatusNotifierItemUnregisteredERK7QString
quickshell:_ZN28StatusNotifierWatcherAdaptorC1EPN2qs7service3sni21StatusNotifierWatcherE
quickshell:_ZN28StatusNotifierWatcherAdaptorC2EPN2qs7service3sni21StatusNotifierWatcherE
quickshell:_ZN28StatusNotifierWatcherAdaptorD0Ev
quickshell:_ZN28StatusNotifierWatcherAdaptorD1Ev
quickshell:_ZN28StatusNotifierWatcherAdaptorD2Ev
quickshell:_ZN29DBusNMConnectionSettingsProxy11qt_metacallEN11QMetaObject4CallEiPPv
quickshell:_ZN29DBusNMConnectionSettingsProxy11qt_metacastEPKc
quickshell:_ZN29DBusNMConnectionSettingsProxy16staticMetaObjectE
quickshell:_ZN29DBusNMConnectionSettingsProxy7RemovedEv
quickshell:_ZN29DBusNMConnectionSettingsProxy7UpdatedEv
quickshell:_ZN29DBusNMConnectionSettingsProxyC1ERK7QStringS2_RK15QDBusConnectionP7QObject
quickshell:_ZN29DBusNMConnectionSettingsProxyC2ERK7QStringS2_RK15QDBusConnectionP7QObject
quickshell:_ZN29DBusNMConnectionSettingsProxyD0Ev
quickshell:_ZN29DBusNMConnectionSettingsProxyD1Ev
quickshell:_ZN29DBusNMConnectionSettingsProxyD2Ev
quickshell:_ZN29Quickshell_Services_PamPlugin11qt_metacallEN11QMetaObject4CallEiPPv
quickshell:_ZN29Quickshell_Services_PamPlugin11qt_metacastEPKc
quickshell:_ZN29Quickshell_Services_PamPlugin16staticMetaObjectE
quickshell:_ZN2qs2i33ipc10I3IpcEvent10intToEventEj
quickshell:_ZN2qs2i33ipc10I3IpcEvent11qt_metacallEN11QMetaObject4CallEiPPv
quickshell:_ZN2qs2i33ipc10I3IpcEvent11qt_metacastEPKc
quickshell:_ZN2qs2i33ipc10I3IpcEvent13eventToStringENS1_9EventCodeE
quickshell:_ZN2qs2i33ipc10I3IpcEvent16staticMetaObjectE
quickshell:_ZN2qs2i33ipc11I3Workspace10setMonitorEPNS1_9I3MonitorE
quickshell:_ZN2qs2i33ipc11I3Workspace11nameChangedEv
quickshell:_ZN2qs2i33ipc11I3Workspace11qt_metacallEN11QMetaObject4CallEiPPv
quickshell:_ZN2qs2i33ipc11I3Workspace11qt_metacastEPKc
quickshell:_ZN2qs2i33ipc11I3Workspace13activeChangedEv
quickshell:_ZN2qs2i33ipc11I3Workspace13numberChangedEv
quickshell:_ZN2qs2i33ipc11I3Workspace13urgentChangedEv
quickshell:_ZN2qs2i33ipc11I3Workspace14focusedChangedEv
quickshell:_ZN2qs2i33ipc11I3Workspace14monitorChangedEv
quickshell:_ZN2qs2i33ipc11I3Workspace16staticMetaObjectE
quickshell:_ZN2qs2i33ipc11I3Workspace16updateFromObjectERK4QMapI7QString8QVariantE
quickshell:_ZN2qs2i33ipc11I3Workspace18onMonitorDestroyedEv
quickshell:_ZN2qs2i33ipc11I3Workspace20lastIpcObjectChangedEv
quickshell:_ZN2qs2i33ipc11I3Workspace8activateEv
quickshell:_ZN2qs2i33ipc11I3Workspace9idChangedEv
quickshell:_ZN2qs2i33ipc11I3WorkspaceC1EPNS1_15I3IpcControllerE
quickshell:_ZN2qs2i33ipc11I3WorkspaceC2EPNS1_15I3IpcControllerE
quickshell:_ZN2qs2i33ipc13I3IpcListener11qt_metacallEN11QMetaObject4CallEiPPv
quickshell:_ZN2qs2i33ipc13I3IpcListener11qt_metacastEPKc
quickshell:_ZN2qs2i33ipc13I3IpcListener12onPostReloadEv
quickshell:_ZN2qs2i33ipc13I3IpcListener12receiveEventEPNS1_10I3IpcEventE
quickshell:_ZN2qs2i33ipc13I3IpcListener14startListeningEv
quickshell:_ZN2qs2i33ipc13I3IpcListener16setSubscriptionsE5QListI7QStringE
quickshell:_ZN2qs2i33ipc13I3IpcListener16staticMetaObjectE
quickshell:_ZN2qs2i33ipc13I3IpcListener20subscriptionsChangedEv
quickshell:_ZN2qs2i33ipc13I3IpcListener8ipcEventEPNS1_10I3IpcEventE
quickshell:_ZN2qs2i33ipc13I3IpcListener9freeI3IpcEv
quickshell:_ZN2qs2i33ipc13I3IpcListenerD0Ev
quickshell:_ZN2qs2i33ipc13I3IpcListenerD1Ev
quickshell:_ZN2qs2i33ipc13I3IpcListenerD2Ev
quickshell:_ZN2qs2i33ipc15I3IpcController10monitorForEP20QuickshellScreenInfo
quickshell:_ZN2qs2i33ipc15I3IpcController10workspacesEv
quickshell:_ZN2qs2i33ipc15I3IpcController11onConnectedEv
quickshell:_ZN2qs2i33ipc15I3IpcController11qt_metacallEN11QMetaObject4CallEiPPv
quickshell:_ZN2qs2i33ipc15I3IpcController11qt_metacastEPKc
quickshell:_ZN2qs2i33ipc15I3IpcController15refreshMonitorsEv
quickshell:_ZN2qs2i33ipc15I3IpcController16handleRunCommandEPNS1_10I3IpcEventE
quickshell:_ZN2qs2i33ipc15I3IpcController16staticMetaObjectE
quickshell:_ZN2qs2i33ipc15I3IpcController17compareWorkspacesEPNS1_11I3WorkspaceES4_
quickshell:_ZN2qs2i33ipc15I3IpcController17findMonitorByNameERK7QStringb
quickshell:_ZN2qs2i33ipc15I3IpcController17findWorkspaceByIDEi
quickshell:_ZN2qs2i33ipc15I3IpcController17refreshWorkspacesEv
quickshell:_ZN2qs2i33ipc15I3IpcController17setFocusedMonitorEPNS1_9I3MonitorE
quickshell:_ZN2qs2i33ipc15I3IpcController19findWorkspaceByNameERK7QString
quickshell:_ZN2qs2i33ipc15I3IpcController20handleWorkspaceEventEPNS1_10I3IpcEventE
quickshell:_ZN2qs2i33ipc15I3IpcController21focusedMonitorChangedEv
quickshell:_ZN2qs2i33ipc15I3IpcController21handleGetOutputsEventEPNS1_10I3IpcEventE
quickshell:_ZN2qs2i33ipc15I3IpcController23focusedWorkspaceChangedEv
quickshell:_ZN2qs2i33ipc15I3IpcController24handleGetWorkspacesEventEPNS1_10I3IpcEventE
quickshell:_ZN2qs2i33ipc15I3IpcController25onFocusedMonitorDestroyedEv
quickshell:_ZN2qs2i33ipc15I3IpcController7onEventEPNS1_10I3IpcEventE
quickshell:_ZN2qs2i33ipc15I3IpcController8instanceEv
quickshell:_ZN2qs2i33ipc15I3IpcController8monitorsEv
quickshell:_ZN2qs2i33ipc15I3IpcControllerC1Ev
quickshell:_ZN2qs2i33ipc15I3IpcControllerC2Ev
quickshell:_ZN2qs2i33ipc5I3Ipc11makeRequestERK10QByteArray
quickshell:_ZN2qs2i33ipc5I3Ipc11qt_metacallEN11QMetaObject4CallEiPPv
quickshell:_ZN2qs2i33ipc5I3Ipc11qt_metacastEPKc
quickshell:_ZN2qs2i33ipc5I3Ipc12reconnectIPCEv
quickshell:_ZN2qs2i33ipc5I3Ipc13parseResponseEv
quickshell:_ZN2qs2i33ipc5I3Ipc16eventSocketReadyEv
quickshell:_ZN2qs2i33ipc5I3Ipc16staticMetaObjectE
quickshell:_ZN2qs2i33ipc5I3Ipc19buildRequestMessageENS1_9EventCodeERK10QByteArray
quickshell:_ZN2qs2i33ipc5I3Ipc23eventSocketStateChangedEN12QLocalSocket16LocalSocketStateE
quickshell:_ZN2qs2i33ipc5I3Ipc7connectEv
quickshell:_ZN2qs2i33ipc5I3Ipc8dispatchERK7QString
quickshell:_ZN2qs2i33ipc5I3Ipc8rawEventEPNS1_10I3IpcEventE
quickshell:_ZN2qs2i33ipc5I3Ipc9connectedEv
quickshell:_ZN2qs2i33ipc5I3Ipc9subscribeEv
quickshell:_ZN2qs2i33ipc5I3IpcC1ERK5QListI7QStringE
quickshell:_ZN2qs2i33ipc5I3IpcC2ERK5QListI7QStringE
quickshell:_ZN2qs2i33ipc8I3IpcQml10monitorForEP20QuickshellScreenInfo
quickshell:_ZN2qs2i33ipc8I3IpcQml10socketPathEv
quickshell:_ZN2qs2i33ipc8I3IpcQml10workspacesEv
quickshell:_ZN2qs2i33ipc8I3IpcQml11qt_metacallEN11QMetaObject4CallEiPPv
quickshell:_ZN2qs2i33ipc8I3IpcQml11qt_metacastEPKc
quickshell:_ZN2qs2i33ipc8I3IpcQml15refreshMonitorsEv
quickshell:_ZN2qs2i33ipc8I3IpcQml16staticMetaObjectE
quickshell:_ZN2qs2i33ipc8I3IpcQml17findMonitorByNameERK7QString
quickshell:_ZN2qs2i33ipc8I3IpcQml17refreshWorkspacesEv
quickshell:_ZN2qs2i33ipc8I3IpcQml19findWorkspaceByNameERK7QString
quickshell:_ZN2qs2i33ipc8I3IpcQml21focusedMonitorChangedEv
quickshell:_ZN2qs2i33ipc8I3IpcQml22bindableFocusedMonitorEv
quickshell:_ZN2qs2i33ipc8I3IpcQml23focusedWorkspaceChangedEv
quickshell:_ZN2qs2i33ipc8I3IpcQml24bindableFocusedWorkspaceEv
quickshell:_ZN2qs2i33ipc8I3IpcQml8dispatchERK7QString
quickshell:_ZN2qs2i33ipc8I3IpcQml8monitorsEv
quickshell:_ZN2qs2i33ipc8I3IpcQml8rawEventEPNS1_10I3IpcEventE
quickshell:_ZN2qs2i33ipc8I3IpcQml9connectedEv
quickshell:_ZN2qs2i33ipc8I3IpcQmlC1Ev
quickshell:_ZN2qs2i33ipc8I3IpcQmlC2Ev
quickshell:_ZN2qs2i33ipc9I3Monitor11nameChangedEv
quickshell:_ZN2qs2i33ipc9I3Monitor11qt_metacallEN11QMetaObject4CallEiPPv
quickshell:_ZN2qs2i33ipc9I3Monitor11qt_metacastEPKc
quickshell:_ZN2qs2i33ipc9I3Monitor12powerChangedEv
quickshell:_ZN2qs2i33ipc9I3Monitor12scaleChangedEv
quickshell:_ZN2qs2i33ipc9I3Monitor12widthChangedEv
quickshell:_ZN2qs2i33ipc9I3Monitor13heightChangedEv
quickshell:_ZN2qs2i33ipc9I3Monitor13updateInitialERK7QString
quickshell:_ZN2qs2i33ipc9I3Monitor14focusedChangedEv
quickshell:_ZN2qs2i33ipc9I3Monitor16staticMetaObjectE
quickshell:_ZN2qs2i33ipc9I3Monitor16updateFromObjectERK4QMapI7QString8QVariantE
quickshell:_ZN2qs2i33ipc9I3Monitor18setActiveWorkspaceEPNS1_11I3WorkspaceE
quickshell:_ZN2qs2i33ipc9I3Monitor19setFocusedWorkspaceEPNS1_11I3WorkspaceE
quickshell:_ZN2qs2i33ipc9I3Monitor20lastIpcObjectChangedEv
quickshell:_ZN2qs2i33ipc9I3Monitor22activeWorkspaceChangedEv
quickshell:_ZN2qs2i33ipc9I3Monitor26onActiveWorkspaceDestroyedEv
quickshell:_ZN2qs2i33ipc9I3Monitor8xChangedEv
quickshell:_ZN2qs2i33ipc9I3Monitor8yChangedEv
quickshell:_ZN2qs2i33ipc9I3Monitor9idChangedEv
quickshell:_ZN2qs2i33ipc9I3MonitorC1EPNS1_15I3IpcControllerE
quickshell:_ZN2qs2i33ipc9I3MonitorC2EPNS1_15I3IpcControllerE
quickshell:_ZN2qs2io10JsonObject11qt_metacallEN11QMetaObject4CallEiPPv
quickshell:_ZN2qs2io10JsonObject11qt_metacastEPKc
quickshell:_ZN2qs2io10JsonObject16staticMetaObjectE
quickshell:_ZN2qs2io11JsonAdapter11qt_metacallEN11QMetaObject4CallEiPPv
quickshell:_ZN2qs2io11JsonAdapter11qt_metacastEPKc
quickshell:_ZN2qs2io11JsonAdapter14deserializeRecERK11QJsonObjectP7QObjectPK11QMetaObject
quickshell:_ZN2qs2io11JsonAdapter16connectNotifiersEv
quickshell:_ZN2qs2io11JsonAdapter16serializeAdapterEv
quickshell:_ZN2qs2io11JsonAdapter16staticMetaObjectE
quickshell:_ZN2qs2io11JsonAdapter17componentCompleteEv
quickshell:_ZN2qs2io11JsonAdapter17onPropertyChangedEv
quickshell:_ZN2qs2io11JsonAdapter18deserializeAdapterERK10QByteArray
quickshell:_ZN2qs2io11JsonAdapter19connectNotifiersRecEiP7QObjectPK11QMetaObject
quickshell:_ZN2qs2io13FileViewError11qt_metacallEN11QMetaObject4CallEiPPv
quickshell:_ZN2qs2io13FileViewError11qt_metacastEPKc
quickshell:_ZN2qs2io13FileViewError16staticMetaObjectE
quickshell:_ZN2qs2io13FileViewError8toStringENS1_4EnumE
quickshell:_ZN2qs2io14FileViewReader3runEv
quickshell:_ZN2qs2io14FileViewReader4readEPNS0_8FileViewERNS0_13FileViewStateEbRK14QAtomicIntegerIbE
quickshell:_ZN2qs2io14FileViewWriter3runEv
quickshell:_ZN2qs2io14FileViewWriter5writeEPNS0_8FileViewERNS0_13FileViewStateEbRK14QAtomicIntegerIbE
quickshell:_ZN2qs2io15FileViewAdapter11qt_metacallEN11QMetaObject4CallEiPPv
quickshell:_ZN2qs2io15FileViewAdapter11qt_metacastEPKc
quickshell:_ZN2qs2io15FileViewAdapter11setFileViewEPNS0_8FileViewE
quickshell:_ZN2qs2io15FileViewAdapter13onDataChangedEv
quickshell:_ZN2qs2io15FileViewAdapter14adapterUpdatedEv
quickshell:_ZN2qs2io15FileViewAdapter16staticMetaObjectE
quickshell:_ZN2qs2io17FileViewOperation11qt_metacallEN11QMetaObject4CallEiPPv
quickshell:_ZN2qs2io17FileViewOperation11qt_metacastEPKc
quickshell:_ZN2qs2io17FileViewOperation16staticMetaObjectE
quickshell:_ZN2qs2io17FileViewOperation4doneEv
quickshell:_ZN2qs2io17FileViewOperation5blockEv
quickshell:_ZN2qs2io17FileViewOperation8finishedEv
quickshell:_ZN2qs2io17FileViewOperation9finishRunEv
quickshell:_ZN2qs2io17FileViewOperation9tryCancelEv
quickshell:_ZN2qs2io17FileViewOperationC1EPNS0_8FileViewE
quickshell:_ZN2qs2io17FileViewOperationC2EPNS0_8FileViewE
quickshell:_ZN2qs2io3ipc10IntIpcType8INSTANCEE
quickshell:_ZN2qs2io3ipc10IpcHandler10findSignalERK7QString
quickshell:_ZN2qs2io3ipc10IpcHandler10setEnabledEb
quickshell:_ZN2qs2io3ipc10IpcHandler11listMembersEx
quickshell:_ZN2qs2io3ipc10IpcHandler11qt_metacallEN11QMetaObject4CallEiPPv
quickshell:_ZN2qs2io3ipc10IpcHandler11qt_metacastEPKc
quickshell:_ZN2qs2io3ipc10IpcHandler12findFunctionERK7QString
quickshell:_ZN2qs2io3ipc10IpcHandler12findPropertyERK7QString
quickshell:_ZN2qs2io3ipc10IpcHandler12onPostReloadEv
quickshell:_ZN2qs2io3ipc10IpcHandler13targetChangedEv
quickshell:_ZN2qs2io3ipc10IpcHandler14enabledChangedEv
quickshell:_ZN2qs2io3ipc10IpcHandler16staticMetaObjectE
quickshell:_ZN2qs2io3ipc10IpcHandler18updateRegistrationEb
quickshell:_ZN2qs2io3ipc10IpcHandler9setTargetERK7QString
quickshell:_ZN2qs2io3ipc10IpcHandlerD0Ev
quickshell:_ZN2qs2io3ipc10IpcHandlerD1Ev
quickshell:_ZN2qs2io3ipc10IpcHandlerD2Ev
quickshell:_ZN2qs2io3ipc11BoolIpcType8INSTANCEE
quickshell:_ZN2qs2io3ipc11IpcFunction7resolveER7QString
quickshell:_ZN2qs2io3ipc11IpcProperty7resolveER7QString
quickshell:_ZN2qs2io3ipc11IpcTypeSlot17asGenericArgumentEv
quickshell:_ZN2qs2io3ipc11IpcTypeSlot23asGenericReturnArgumentEv
quickshell:_ZN2qs2io3ipc11IpcTypeSlot3getEv
quickshell:_ZN2qs2io3ipc11IpcTypeSlot7replaceEPv
quickshell:_ZN2qs2io3ipc11IpcTypeSlot7replaceERK8QVariant
quickshell:_ZN2qs2io3ipc11IpcTypeSlotC1EOS2_
quickshell:_ZN2qs2io3ipc11IpcTypeSlotC2EOS2_
quickshell:_ZN2qs2io3ipc11IpcTypeSlotD1Ev
quickshell:_ZN2qs2io3ipc11IpcTypeSlotD2Ev
quickshell:_ZN2qs2io3ipc11IpcTypeSlotaSEOS2_
quickshell:_ZN2qs2io3ipc11VoidIpcType8INSTANCEE
quickshell:_ZN2qs2io3ipc12ColorIpcType8INSTANCEE
quickshell:_ZN2qs2io3ipc13DoubleIpcType8INSTANCEE
quickshell:_ZN2qs2io3ipc13StringIpcType8INSTANCEE
quickshell:_ZN2qs2io3ipc14IpcCallStorage12getReturnStrEv
quickshell:_ZN2qs2io3ipc14IpcCallStorage14setArgumentStrEmRK7QString
quickshell:_ZN2qs2io3ipc14IpcCallStorageC1ERKNS1_11IpcFunctionE
quickshell:_ZN2qs2io3ipc14IpcCallStorageC2ERKNS1_11IpcFunctionE
quickshell:_ZN2qs2io3ipc17IpcSignalListener10SLOT_COLORE
quickshell:_ZN2qs2io3ipc17IpcSignalListener11SLOT_STRINGE
quickshell:_ZN2qs2io3ipc17IpcSignalListener11qt_metacallEN11QMetaObject4CallEiPPv
quickshell:_ZN2qs2io3ipc17IpcSignalListener11qt_metacastEPKc
quickshell:_ZN2qs2io3ipc17IpcSignalListener16staticMetaObjectE
quickshell:_ZN2qs2io3ipc17IpcSignalListener8SLOT_INTE
quickshell:_ZN2qs2io3ipc17IpcSignalListener9SLOT_BOOLE
quickshell:_ZN2qs2io3ipc17IpcSignalListener9SLOT_REALE
quickshell:_ZN2qs2io3ipc17IpcSignalListener9SLOT_VOIDE
quickshell:_ZN2qs2io3ipc17IpcSignalListener9triggeredERK7QStringS5_
quickshell:_ZN2qs2io3ipc18IpcHandlerRegistry11findHandlerERK7QString
quickshell:_ZN2qs2io3ipc18IpcHandlerRegistry11listMembersERK7QStringx
quickshell:_ZN2qs2io3ipc18IpcHandlerRegistry11listTargetsEx
quickshell:_ZN2qs2io3ipc18IpcHandlerRegistry13forGenerationEP16EngineGeneration
quickshell:_ZN2qs2io3ipc18IpcHandlerRegistry15registerHandlerEPNS1_10IpcHandlerE
quickshell:_ZN2qs2io3ipc18IpcHandlerRegistry17deregisterHandlerEPNS1_10IpcHandlerE
quickshell:_ZN2qs2io3ipc23IpcSignalRemoteListener11qt_metacallEN11QMetaObject4CallEiPPv
quickshell:_ZN2qs2io3ipc23IpcSignalRemoteListener11qt_metacastEPKc
quickshell:_ZN2qs2io3ipc23IpcSignalRemoteListener16staticMetaObjectE
quickshell:_ZN2qs2io3ipc23IpcSignalRemoteListener8instanceEv
quickshell:_ZN2qs2io3ipc23IpcSignalRemoteListener9triggeredERK7QStringS5_S5_
quickshell:_ZN2qs2io3ipc4comm11getPropertyEPNS_3ipc9IpcClientERK7QStringS8_
quickshell:_ZN2qs2io3ipc4comm12callFunctionEPNS_3ipc9IpcClientERK7QStringS8_RK5QListIS6_E
quickshell:_ZN2qs2io3ipc4comm13queryMetadataEPNS_3ipc9IpcClientERK7QStringS8_
quickshell:_ZN2qs2io3ipc4comm14listenToSignalEPNS_3ipc9IpcClientERK7QStringS8_b
quickshell:_ZN2qs2io3ipc4comm19SignalListenCommand4execEPNS_3ipc19IpcServerConnectionE
quickshell:_ZN2qs2io3ipc4comm20RemoteSignalListener11qt_metacallEN11QMetaObject4CallEiPPv
quickshell:_ZN2qs2io3ipc4comm20RemoteSignalListener11qt_metacastEPKc
quickshell:_ZN2qs2io3ipc4comm20RemoteSignalListener15onConnDestroyedEv
quickshell:_ZN2qs2io3ipc4comm20RemoteSignalListener16staticMetaObjectE
quickshell:_ZN2qs2io3ipc4comm20RemoteSignalListener8onSignalERK7QStringS6_S6_
quickshell:_ZN2qs2io3ipc4comm20RemoteSignalListenerC1EPNS_3ipc19IpcServerConnectionENS2_19SignalListenCommandE
quickshell:_ZN2qs2io3ipc4comm20RemoteSignalListenerC2EPNS_3ipc19IpcServerConnectionENS2_19SignalListenCommandE
quickshell:_ZN2qs2io3ipc4comm20RemoteSignalListenerD0Ev
quickshell:_ZN2qs2io3ipc4comm20RemoteSignalListenerD1Ev
quickshell:_ZN2qs2io3ipc4comm20RemoteSignalListenerD2Ev
quickshell:_ZN2qs2io3ipc7IpcType7ipcTypeERK9QMetaType
quickshell:_ZN2qs2io3ipc9IpcSignal15connectListenerEPNS1_10IpcHandlerE
quickshell:_ZN2qs2io3ipc9IpcSignal7resolveER7QString
quickshell:_ZN2qs2io7process14ProcessContext16staticMetaObjectE
quickshell:_ZN2qs2io7process23setupProcessEnvironmentEP8QProcessbRK5QHashI7QString8QVariantE
quickshell:_ZN2qs2io8FileView10loadFailedENS0_13FileViewError4EnumE
quickshell:_ZN2qs2io8FileView10saveFailedENS0_13FileViewError4EnumE
quickshell:_ZN2qs2io8FileView10setAdapterEPNS0_15FileViewAdapterE
quickshell:_ZN2qs2io8FileView10setPreloadEb
quickshell:_ZN2qs2io8FileView10updatePathEv
quickshell:_ZN2qs2io8FileView10waitForJobEv
quickshell:_ZN2qs2io8FileView11cancelAsyncEv
quickshell:_ZN2qs2io8FileView11dataChangedEv
quickshell:_ZN2qs2io8FileView11fileChangedEv
quickshell:_ZN2qs2io8FileView11pathChangedEv
quickshell:_ZN2qs2io8FileView11qt_metacallEN11QMetaObject4CallEiPPv
quickshell:_ZN2qs2io8FileView11qt_metacastEPKc
quickshell:_ZN2qs2io8FileView11textChangedEv
quickshell:_ZN2qs2io8FileView11updateStateERNS0_13FileViewStateE
quickshell:_ZN2qs2io8FileView12writeAdapterEv
quickshell:_ZN2qs2io8FileView14adapterChangedEv
quickshell:_ZN2qs2io8FileView14adapterUpdatedEv
quickshell:_ZN2qs2io8FileView14preloadChangedEv
quickshell:_ZN2qs2io8FileView15emitDataChangedEv
quickshell:_ZN2qs2io8FileView15setBlockLoadingEb
quickshell:_ZN2qs2io8FileView16setBlockAllReadsEb
quickshell:_ZN2qs2io8FileView16setLoadedOrAsyncERKb
quickshell:_ZN2qs2io8FileView16staticMetaObjectE
quickshell:_ZN2qs2io8FileView17operationFinishedEv
quickshell:_ZN2qs2io8FileView18blockWritesChangedEv
quickshell:_ZN2qs2io8FileView18onAdapterDestroyedEv
quickshell:_ZN2qs2io8FileView18printErrorsChangedEv
quickshell:_ZN2qs2io8FileView18updateWatchedFilesEv
quickshell:_ZN2qs2io8FileView19atomicWritesChangedEv
quickshell:_ZN2qs2io8FileView19blockLoadingChangedEv
quickshell:_ZN2qs2io8FileView19internalDataChangedEv
quickshell:_ZN2qs2io8FileView19internalTextChangedEv
quickshell:_ZN2qs2io8FileView19watchChangesChangedEv
quickshell:_ZN2qs2io8FileView20blockAllReadsChangedEv
quickshell:_ZN2qs2io8FileView20loadedOrAsyncChangedEv
quickshell:_ZN2qs2io8FileView20onWatchedFileChangedEv
quickshell:_ZN2qs2io8FileView25onWatchedDirectoryChangedEv
quickshell:_ZN2qs2io8FileView4dataEv
quickshell:_ZN2qs2io8FileView4textEv
quickshell:_ZN2qs2io8FileView5savedEv
quickshell:_ZN2qs2io8FileView6loadedEv
quickshell:_ZN2qs2io8FileView6reloadEv
quickshell:_ZN2qs2io8FileView7setDataERK10QByteArray
quickshell:_ZN2qs2io8FileView7setPathERK7QString
quickshell:_ZN2qs2io8FileView7setTextERK7QString
quickshell:_ZN2qs2io8FileView8loadSyncEv
quickshell:_ZN2qs2io8FileView8saveSyncEv
quickshell:_ZN2qs2io8FileView9loadAsyncEb
quickshell:_ZN2qs2io8FileView9saveAsyncEv
quickshell:_ZN2qs2io8FileViewD0Ev
quickshell:_ZN2qs2io8FileViewD1Ev
quickshell:_ZN2qs2io8FileViewD2Ev
quickshell:_ZN2qs2ui11ReloadPopup10spawnPopupE7QStringbS2_
quickshell:_ZN2qs2ui11ReloadPopup11activePopupE
quickshell:_ZN2qs2ui11ReloadPopup11qt_metacallEN11QMetaObject4CallEiPPv
quickshell:_ZN2qs2ui11ReloadPopup11qt_metacastEPKc
quickshell:_ZN2qs2ui11ReloadPopup16staticMetaObjectE
quickshell:_ZN2qs2ui11ReloadPopup6closedEv
quickshell:_ZN2qs2ui11ReloadPopupC1E7QStringbS2_
quickshell:_ZN2qs2ui11ReloadPopupC2E7QStringbS2_
quickshell:_ZN2qs2wm12logWorkspaceEv
quickshell:_ZN2qs2wm13WindowManager11qt_metacallEN11QMetaObject4CallEiPPv
quickshell:_ZN2qs2wm13WindowManager11qt_metacastEPKc
quickshell:_ZN2qs2wm13WindowManager11setProviderESt8functionIFPS1_vEE
quickshell:_ZN2qs2wm13WindowManager16screenProjectionEP20QuickshellScreenInfo
quickshell:_ZN2qs2wm13WindowManager16staticMetaObjectE
quickshell:_ZN2qs2wm13WindowManager17windowsetsChangedEv
quickshell:_ZN2qs2wm13WindowManager27windowsetProjectionsChangedEv
quickshell:_ZN2qs2wm13WindowManager8instanceEv
quickshell:_ZN2qs2wm13WindowManager8providerE
quickshell:_ZN2qs2wm16ScreenProjection11qt_metacallEN11QMetaObject4CallEiPPv
quickshell:_ZN2qs2wm16ScreenProjection11qt_metacastEPKc
quickshell:_ZN2qs2wm16ScreenProjection16staticMetaObjectE
quickshell:_ZN2qs2wm16ScreenProjectionC1EP7QScreenP7QObject
quickshell:_ZN2qs2wm16ScreenProjectionC2EP7QScreenP7QObject
quickshell:_ZN2qs2wm16WindowManagerQml11qt_metacallEN11QMetaObject4CallEiPPv
quickshell:_ZN2qs2wm16WindowManagerQml11qt_metacastEPKc
quickshell:_ZN2qs2wm16WindowManagerQml16staticMetaObjectE
quickshell:_ZN2qs2wm19WindowsetProjection11qt_metacallEN11QMetaObject4CallEiPPv
quickshell:_ZN2qs2wm19WindowsetProjection11qt_metacastEPKc
quickshell:_ZN2qs2wm19WindowsetProjection14screensChangedEv
quickshell:_ZN2qs2wm19WindowsetProjection16staticMetaObjectE
quickshell:_ZN2qs2wm19WindowsetProjection17windowsetsChangedEv
quickshell:_ZN2qs2wm19WindowsetProjectionC1EP7QObject
quickshell:_ZN2qs2wm19WindowsetProjectionC2EP7QObject
quickshell:_ZN2qs2wm7wayland11WlWindowset10commitImplEv
quickshell:_ZN2qs2wm7wayland11WlWindowset10deactivateEv
quickshell:_ZN2qs2wm7wayland11WlWindowset13setProjectionEPNS0_19WindowsetProjectionE
quickshell:_ZN2qs2wm7wayland11WlWindowset6removeEv
quickshell:_ZN2qs2wm7wayland11WlWindowset8activateEv
quickshell:_ZN2qs2wm7wayland11WlWindowsetC1EPNS1_16WindowsetManagerEPNS_7wayland9workspace9WorkspaceE
quickshell:_ZN2qs2wm7wayland11WlWindowsetC2EPNS1_16WindowsetManagerEPNS_7wayland9workspace9WorkspaceE
quickshell:_ZN2qs2wm7wayland16WindowsetManager11qt_metacallEN11QMetaObject4CallEiPPv
quickshell:_ZN2qs2wm7wayland16WindowsetManager11qt_metacastEPKc
quickshell:_ZN2qs2wm7wayland16WindowsetManager14onServerCommitEv
quickshell:_ZN2qs2wm7wayland16WindowsetManager14scheduleCommitEv
quickshell:_ZN2qs2wm7wayland16WindowsetManager16staticMetaObjectE
quickshell:_ZN2qs2wm7wayland16WindowsetManager18onWindowsetCreatedEPNS_7wayland9workspace9WorkspaceE
quickshell:_ZN2qs2wm7wayland16WindowsetManager19onProjectionCreatedEPNS_7wayland9workspace14WorkspaceGroupE
quickshell:_ZN2qs2wm7wayland16WindowsetManager20onWindowsetDestroyedEPNS_7wayland9workspace9WorkspaceE
quickshell:_ZN2qs2wm7wayland16WindowsetManager21onProjectionDestroyedEPNS_7wayland9workspace14WorkspaceGroupE
quickshell:_ZN2qs2wm7wayland16WindowsetManager8doCommitEv
quickshell:_ZN2qs2wm7wayland16WindowsetManager8instanceEv
quickshell:_ZN2qs2wm7wayland16WindowsetManagerC1Ev
quickshell:_ZN2qs2wm7wayland16WindowsetManagerC2Ev
quickshell:_ZN2qs2wm7wayland17installWmProviderEv
quickshell:_ZN2qs2wm7wayland20WaylandWindowManager11qt_metacallEN11QMetaObject4CallEiPPv
quickshell:_ZN2qs2wm7wayland20WaylandWindowManager11qt_metacastEPKc
quickshell:_ZN2qs2wm7wayland20WaylandWindowManager16staticMetaObjectE
quickshell:_ZN2qs2wm7wayland20WaylandWindowManager8instanceEv
quickshell:_ZN2qs2wm7wayland21WlWindowsetProjection10commitImplEv
quickshell:_ZN2qs2wm7wayland21WlWindowsetProjectionC1EPNS1_16WindowsetManagerEPNS_7wayland9workspace14WorkspaceGroupE
quickshell:_ZN2qs2wm7wayland21WlWindowsetProjectionC2EPNS1_16WindowsetManagerEPNS_7wayland9workspace14WorkspaceGroupE
quickshell:_ZN2qs2wm9Windowset10deactivateEv
quickshell:_ZN2qs2wm9Windowset11nameChangedEv
quickshell:_ZN2qs2wm9Windowset11qt_metacallEN11QMetaObject4CallEiPPv
quickshell:_ZN2qs2wm9Windowset11qt_metacastEPKc
quickshell:_ZN2qs2wm9Windowset13activeChangedEv
quickshell:_ZN2qs2wm9Windowset13setProjectionEPNS0_19WindowsetProjectionE
quickshell:_ZN2qs2wm9Windowset13urgentChangedEv
quickshell:_ZN2qs2wm9Windowset16canRemoveChangedEv
quickshell:_ZN2qs2wm9Windowset16staticMetaObjectE
quickshell:_ZN2qs2wm9Windowset17projectionChangedEv
quickshell:_ZN2qs2wm9Windowset18canActivateChangedEv
quickshell:_ZN2qs2wm9Windowset18coordinatesChangedEv
quickshell:_ZN2qs2wm9Windowset20canDeactivateChangedEv
quickshell:_ZN2qs2wm9Windowset20shouldDisplayChangedEv
quickshell:_ZN2qs2wm9Windowset23canSetProjectionChangedEv
quickshell:_ZN2qs2wm9Windowset6removeEv
quickshell:_ZN2qs2wm9Windowset8activateEv
quickshell:_ZN2qs2wm9Windowset9idChangedEv
quickshell:_ZN2qs3dwl12DwlIpcOutput11qt_metacallEN11QMetaObject4CallEiPPv
quickshell:_ZN2qs3dwl12DwlIpcOutput11qt_metacastEPKc
quickshell:_ZN2qs3dwl12DwlIpcOutput11tagsChangedEv
quickshell:_ZN2qs3dwl12DwlIpcOutput12appIdChangedEv
quickshell:_ZN2qs3dwl12DwlIpcOutput12titleChangedEv
quickshell:_ZN2qs3dwl12DwlIpcOutput13activeChangedEv
quickshell:_ZN2qs3dwl12DwlIpcOutput13setClientTagsEjj
quickshell:_ZN2qs3dwl12DwlIpcOutput15floatingChangedEv
quickshell:_ZN2qs3dwl12DwlIpcOutput15kbLayoutChangedEv
quickshell:_ZN2qs3dwl12DwlIpcOutput16staticMetaObjectE
quickshell:_ZN2qs3dwl12DwlIpcOutput16toggleVisibilityEv
quickshell:_ZN2qs3dwl12DwlIpcOutput17fullscreenChangedEv
quickshell:_ZN2qs3dwl12DwlIpcOutput18layoutIndexChangedEv
quickshell:_ZN2qs3dwl12DwlIpcOutput19layoutSymbolChangedEv
quickshell:_ZN2qs3dwl12DwlIpcOutput22zdwl_ipc_output_v2_tagEjjjj
quickshell:_ZN2qs3dwl12DwlIpcOutput24zdwl_ipc_output_v2_appidERK7QString
quickshell:_ZN2qs3dwl12DwlIpcOutput24zdwl_ipc_output_v2_frameEv
quickshell:_ZN2qs3dwl12DwlIpcOutput24zdwl_ipc_output_v2_titleERK7QString
quickshell:_ZN2qs3dwl12DwlIpcOutput25zdwl_ipc_output_v2_activeEj
quickshell:_ZN2qs3dwl12DwlIpcOutput25zdwl_ipc_output_v2_layoutEj
quickshell:_ZN2qs3dwl12DwlIpcOutput27zdwl_ipc_output_v2_floatingEj
quickshell:_ZN2qs3dwl12DwlIpcOutput28zdwl_ipc_output_v2_kb_layoutERK7QString
quickshell:_ZN2qs3dwl12DwlIpcOutput29zdwl_ipc_output_v2_fullscreenEj
quickshell:_ZN2qs3dwl12DwlIpcOutput32zdwl_ipc_output_v2_layout_symbolERK7QString
quickshell:_ZN2qs3dwl12DwlIpcOutput36zdwl_ipc_output_v2_toggle_visibilityEv
quickshell:_ZN2qs3dwl12DwlIpcOutput5frameEv
quickshell:_ZN2qs3dwl12DwlIpcOutput7setTagsEjj
quickshell:_ZN2qs3dwl12DwlIpcOutput8initTagsEj
quickshell:_ZN2qs3dwl12DwlIpcOutput9setLayoutEj
quickshell:_ZN2qs3dwl12DwlIpcOutputC1EP18zdwl_ipc_output_v27QStringP7QObject
quickshell:_ZN2qs3dwl12DwlIpcOutputC2EP18zdwl_ipc_output_v27QStringP7QObject
quickshell:_ZN2qs3dwl12DwlIpcOutputD0Ev
quickshell:_ZN2qs3dwl12DwlIpcOutputD1Ev
quickshell:_ZN2qs3dwl12DwlIpcOutputD2Ev
quickshell:_ZN2qs3dwl13DwlIpcManager10bindOutputEP9wl_outputRK7QString
quickshell:_ZN2qs3dwl13DwlIpcManager11outputAddedEPNS0_12DwlIpcOutputE
quickshell:_ZN2qs3dwl13DwlIpcManager11qt_metacallEN11QMetaObject4CallEiPPv
quickshell:_ZN2qs3dwl13DwlIpcManager11qt_metacastEPKc
quickshell:_ZN2qs3dwl13DwlIpcManager12removeOutputEP9wl_output
quickshell:_ZN2qs3dwl13DwlIpcManager13onScreenAddedEP7QScreen
quickshell:_ZN2qs3dwl13DwlIpcManager13outputRemovedEPNS0_12DwlIpcOutputE
quickshell:_ZN2qs3dwl13DwlIpcManager14layoutsChangedEv
quickshell:_ZN2qs3dwl13DwlIpcManager15onScreenRemovedEP7QScreen
quickshell:_ZN2qs3dwl13DwlIpcManager15tagCountChangedEv
quickshell:_ZN2qs3dwl13DwlIpcManager16staticMetaObjectE
quickshell:_ZN2qs3dwl13DwlIpcManager24zdwl_ipc_manager_v2_tagsEj
quickshell:_ZN2qs3dwl13DwlIpcManager26zdwl_ipc_manager_v2_layoutERK7QString
quickshell:_ZN2qs3dwl13DwlIpcManager8instanceEv
quickshell:_ZN2qs3dwl13DwlIpcManagerC1Ev
quickshell:_ZN2qs3dwl13DwlIpcManagerC2Ev
quickshell:_ZN2qs3dwl6DwlTag11qt_metacallEN11QMetaObject4CallEiPPv
quickshell:_ZN2qs3dwl6DwlTag11qt_metacastEPKc
quickshell:_ZN2qs3dwl6DwlTag11updateStateEjjj
quickshell:_ZN2qs3dwl6DwlTag13activeChangedEv
quickshell:_ZN2qs3dwl6DwlTag13urgentChangedEv
quickshell:_ZN2qs3dwl6DwlTag16staticMetaObjectE
quickshell:_ZN2qs3dwl6DwlTag18clientCountChangedEv
quickshell:_ZN2qs3dwl6DwlTag20focusedClientChangedEv
quickshell:_ZN2qs3dwl6DwlTagC1EjP7QObject
quickshell:_ZN2qs3dwl6DwlTagC2EjP7QObject
quickshell:_ZN2qs3dwl9DwlIpcQml11qt_metacallEN11QMetaObject4CallEiPPv
quickshell:_ZN2qs3dwl9DwlIpcQml11qt_metacastEPKc
quickshell:_ZN2qs3dwl9DwlIpcQml14layoutsChangedEv
quickshell:_ZN2qs3dwl9DwlIpcQml14outputsChangedEv
quickshell:_ZN2qs3dwl9DwlIpcQml15tagCountChangedEv
quickshell:_ZN2qs3dwl9DwlIpcQml16availableChangedEv
quickshell:_ZN2qs3dwl9DwlIpcQml16staticMetaObjectE
quickshell:_ZN2qs3dwl9DwlIpcQmlC1EP7QObject
quickshell:_ZN2qs3dwl9DwlIpcQmlC2EP7QObject
quickshell:_ZN2qs3ipc14IpcKillCommand4execEPNS0_19IpcServerConnectionE
quickshell:_ZN2qs3ipc19IpcServerConnection11onReadyReadEv
quickshell:_ZN2qs3ipc19IpcServerConnection11qt_metacallEN11QMetaObject4CallEiPPv
quickshell:_ZN2qs3ipc19IpcServerConnection11qt_metacastEPKc
quickshell:_ZN2qs3ipc19IpcServerConnection14onDisconnectedEv
quickshell:_ZN2qs3ipc19IpcServerConnection16staticMetaObjectE
quickshell:_ZN2qs3ipc19IpcServerConnectionC1EP12QLocalSocketPNS0_9IpcServerE
quickshell:_ZN2qs3ipc19IpcServerConnectionC2EP12QLocalSocketPNS0_9IpcServerE
quickshell:_ZN2qs3ipc6logIpcEv
quickshell:_ZN2qs3ipc8qslogcat6logIpcEv
quickshell:_ZN2qs3ipc9IpcClient11qt_metacallEN11QMetaObject4CallEiPPv
quickshell:_ZN2qs3ipc9IpcClient11qt_metacastEPKc
quickshell:_ZN2qs3ipc9IpcClient12disconnectedEv
quickshell:_ZN2qs3ipc9IpcClient16staticMetaObjectE
quickshell:_ZN2qs3ipc9IpcClient16waitForConnectedEv
quickshell:_ZN2qs3ipc9IpcClient19waitForDisconnectedEv
quickshell:_ZN2qs3ipc9IpcClient4killEv
quickshell:_ZN2qs3ipc9IpcClient7connectERK7QStringRKSt8functionIFvRS1_EE
quickshell:_ZN2qs3ipc9IpcClient7onErrorEN12QLocalSocket16LocalSocketErrorE
quickshell:_ZN2qs3ipc9IpcClient9connectedEv
quickshell:_ZN2qs3ipc9IpcClientC1ERK7QString
quickshell:_ZN2qs3ipc9IpcClientC2ERK7QString
quickshell:_ZN2qs3ipc9IpcServer11qt_metacallEN11QMetaObject4CallEiPPv
quickshell:_ZN2qs3ipc9IpcServer11qt_metacastEPKc
quickshell:_ZN2qs3ipc9IpcServer15onNewConnectionEv
quickshell:_ZN2qs3ipc9IpcServer16staticMetaObjectE
quickshell:_ZN2qs3ipc9IpcServer5startEv
quickshell:_ZN2qs3ipc9IpcServerC1ERK7QString
quickshell:_ZN2qs3ipc9IpcServerC2ERK7QString
quickshell:_ZN2qs3log10LogManager10logMessageENS0_10LogMessageEb
quickshell:_ZN2qs3log10LogManager11qt_metacallEN11QMetaObject4CallEiPPv
quickshell:_ZN2qs3log10LogManager11qt_metacastEPKc
quickshell:_ZN2qs3log10LogManager14filterCategoryEP16QLoggingCategory
quickshell:_ZN2qs3log10LogManager14messageHandlerE9QtMsgTypeRK18QMessageLogContextRK7QString
quickshell:_ZN2qs3log10LogManager16staticMetaObjectE
quickshell:_ZN2qs3log10LogManager4initEbbb9QtMsgTypeRK7QStringS5_
quickshell:_ZN2qs3log10LogManager6initFsEv
quickshell:_ZN2qs3log10LogManager8instanceEv
quickshell:_ZN2qs3log10LogManager9getFilterE13QLatin1String
quickshell:_ZN2qs3log10LogManagerC1Ev
quickshell:_ZN2qs3log10LogManagerC2Ev
quickshell:_ZN2qs3log10LogMessage13formatMessageER11QTextStreamRKS1_bbRK7QString
quickshell:_ZN2qs3log10logLoggingEv
quickshell:_ZN2qs3log11LogFollower11qt_metacallEN11QMetaObject4CallEiPPv
quickshell:_ZN2qs3log11LogFollower11qt_metacastEPKc
quickshell:_ZN2qs3log11LogFollower12onFileLockedEv
quickshell:_ZN2qs3log11LogFollower13onFileChangedEv
quickshell:_ZN2qs3log11LogFollower15FcntlWaitThread3runEv
quickshell:_ZN2qs3log11LogFollower16staticMetaObjectE
quickshell:_ZN2qs3log11LogFollower6followEv
quickshell:_ZN2qs3log11WriteBuffer10writeBytesEPKcx
quickshell:_ZN2qs3log11WriteBuffer5flushEv
quickshell:_ZN2qs3log11WriteBuffer7writeU8Eh
quickshell:_ZN2qs3log11WriteBuffer8writeU16Et
quickshell:_ZN2qs3log11WriteBuffer8writeU32Ej
quickshell:_ZN2qs3log11WriteBuffer8writeU64Ey
quickshell:_ZN2qs3log11WriteBuffer9setDeviceEP9QIODevice
quickshell:_ZN2qs3log12DeviceReader4skipEx
quickshell:_ZN2qs3log12DeviceReader6readU8EPh
quickshell:_ZN2qs3log12DeviceReader7readU16EPt
quickshell:_ZN2qs3log12DeviceReader7readU32EPj
quickshell:_ZN2qs3log12DeviceReader7readU64EPy
quickshell:_ZN2qs3log12DeviceReader9peekBytesEPcx
quickshell:_ZN2qs3log12DeviceReader9readBytesEPcx
quickshell:_ZN2qs3log12DeviceReader9setDeviceEP9QIODevice
quickshell:_ZN2qs3log13ThreadLogging11qt_metacallEN11QMetaObject4CallEiPPv
quickshell:_ZN2qs3log13ThreadLogging11qt_metacastEPKc
quickshell:_ZN2qs3log13ThreadLogging16staticMetaObjectE
quickshell:_ZN2qs3log13ThreadLogging4initEv
quickshell:_ZN2qs3log13ThreadLogging6initFsEv
quickshell:_ZN2qs3log13ThreadLogging9onMessageERKNS0_10LogMessageEb
quickshell:_ZN2qs3log14CategoryFilter9applyRuleE13QLatin1StringRKNS0_19qt_logging_registry12QLoggingRuleE
quickshell:_ZN2qs3log15readEncodedLogsEP5QFileRK7QStringbibS5_
quickshell:_ZN2qs3log16EncodedLogReader10readHeaderEPbPhS3_
quickshell:_ZN2qs3log16EncodedLogReader10readStringEP10QByteArray
quickshell:_ZN2qs3log16EncodedLogReader10readVarIntEPj
quickshell:_ZN2qs3log16EncodedLogReader16registerCategoryEv
quickshell:_ZN2qs3log16EncodedLogReader18categoryFilterByIdEt
quickshell:_ZN2qs3log16EncodedLogReader4readEPNS0_10LogMessageE
quickshell:_ZN2qs3log16EncodedLogReader9setDeviceEP9QIODevice
quickshell:_ZN2qs3log16EncodedLogWriter11writeHeaderEv
quickshell:_ZN2qs3log16EncodedLogWriter11writeStringE14QByteArrayView
quickshell:_ZN2qs3log16EncodedLogWriter11writeVarIntEj
quickshell:_ZN2qs3log16EncodedLogWriter19getOrCreateCategoryE13QLatin1String
quickshell:_ZN2qs3log16EncodedLogWriter5writeERKNS0_10LogMessageE
quickshell:_ZN2qs3log16EncodedLogWriter7writeOpENS0_16EncodedLogOpcodeE
quickshell:_ZN2qs3log16EncodedLogWriter9setDeviceEP9QIODevice
quickshell:_ZN2qs3log16compressedTypeOfE9QtMsgType
quickshell:_ZN2qs3log16typeOfCompressedENS0_17CompressedLogTypeE
quickshell:_ZN2qs3log18LoggingThreadProxy11qt_metacallEN11QMetaObject4CallEiPPv
quickshell:_ZN2qs3log18LoggingThreadProxy11qt_metacastEPKc
quickshell:_ZN2qs3log18LoggingThreadProxy12initInThreadEv
quickshell:_ZN2qs3log18LoggingThreadProxy16staticMetaObjectE
quickshell:_ZN2qs3log18LoggingThreadProxy6initFsEv
quickshell:_ZN2qs3log19qt_logging_registry12QLoggingRule5parseE11QStringView
quickshell:_ZN2qs3log19qt_logging_registry12QLoggingRuleC1E11QStringViewb
quickshell:_ZN2qs3log19qt_logging_registry12QLoggingRuleC2E11QStringViewb
quickshell:_ZN2qs3log19qt_logging_registry22QLoggingSettingsParser10setContentE11QStringView
quickshell:_ZN2qs3log19qt_logging_registry22QLoggingSettingsParser13parseNextLineE11QStringView
quickshell:_ZN2qs3log20initLogCategoryLevelEPKc9QtMsgType
quickshell:_ZN2qs3log5qHashERKNS0_10LogMessageE
quickshell:_ZN2qs3log8qslogcat10logLoggingEv
quickshell:_ZN2qs3log9LogReader10initializeEv
quickshell:_ZN2qs3log9LogReader15continueReadingEv
quickshell:_ZN2qs4core17QmlToolingSupport11lockToolingEv
quickshell:_ZN2qs4core17QmlToolingSupport13updateToolingERK4QDirR10QmlScanner
quickshell:_ZN2qs4core17QmlToolingSupport14getQmllsConfigEv
quickshell:_ZN2qs4core17QmlToolingSupport15updateToolingFsER10QmlScannerRK4QDirS6_
quickshell:_ZN2qs4core17QmlToolingSupport17updateQmllsConfigERK4QDirb
quickshell:_ZN2qs4dbus16tryLaunchServiceEP7QObjectR15QDBusConnectionRK7QStringRKSt8functionIFvbEE
quickshell:_ZN2qs4dbus17DBusDataTransformI5QListINS_7service6upower12PowerProfile4EnumEEE8fromWireERKS2_I4QMapI7QString8QVariantEE
quickshell:_ZN2qs4dbus17DBusDataTransformI5QListINS_7service6upower16PowerProfileHoldEEE8fromWireERKS2_I4QMapI7QString8QVariantEE
quickshell:_ZN2qs4dbus17DBusDataTransformI9QDateTimeE8fromWireEx
quickshell:_ZN2qs4dbus17DBusDataTransformINS_7network11NM80211Mode4EnumEE8fromWireEj
quickshell:_ZN2qs4dbus17DBusDataTransformINS_7network13NMDeviceState4EnumEE8fromWireEj
quickshell:_ZN2qs4dbus17DBusDataTransformINS_7network14NM80211ApFlags4EnumEE8fromWireEj
quickshell:_ZN2qs4dbus17DBusDataTransformINS_7network17NMConnectionState4EnumEE8fromWireEj
quickshell:_ZN2qs4dbus17DBusDataTransformINS_7network22NM80211ApSecurityFlags4EnumEE8fromWireEj
quickshell:_ZN2qs4dbus17DBusDataTransformINS_7network22NMWirelessCapabilities4EnumEE8fromWireEj
quickshell:_ZN2qs4dbus17DBusDataTransformINS_7service3sni6Status4EnumEE8fromWireERK7QString
quickshell:_ZN2qs4dbus17DBusDataTransformINS_7service3sni8Category4EnumEE8fromWireERK7QString
quickshell:_ZN2qs4dbus17DBusDataTransformINS_7service5mpris14MprisLoopState4EnumEE6toWireES5_
quickshell:_ZN2qs4dbus17DBusDataTransformINS_7service5mpris14MprisLoopState4EnumEE8fromWireERK7QString
quickshell:_ZN2qs4dbus17DBusDataTransformINS_7service5mpris18MprisPlaybackState4EnumEE6toWireES5_
quickshell:_ZN2qs4dbus17DBusDataTransformINS_7service5mpris18MprisPlaybackState4EnumEE8fromWireERK7QString
quickshell:_ZN2qs4dbus17DBusDataTransformINS_7service6upower12PowerProfile4EnumEE6toWireES5_
quickshell:_ZN2qs4dbus17DBusDataTransformINS_7service6upower12PowerProfile4EnumEE8fromWireERK7QString
quickshell:_ZN2qs4dbus17DBusDataTransformINS_7service6upower15PowerPercentageEE8fromWireEd
quickshell:_ZN2qs4dbus17DBusDataTransformINS_7service6upower16UPowerDeviceType4EnumEE8fromWireEj
quickshell:_ZN2qs4dbus17DBusDataTransformINS_7service6upower17UPowerDeviceState4EnumEE8fromWireEj
quickshell:_ZN2qs4dbus17DBusDataTransformINS_7service6upower28PerformanceDegradationReason4EnumEE8fromWireERK7QString
quickshell:_ZN2qs4dbus17DBusDataTransformINS_9bluetooth17BatteryPercentageEE8fromWireEh
quickshell:_ZN2qs4dbus17DBusDataTransformINS_9bluetooth21BluetoothAdapterState4EnumEE8fromWireERK7QString
quickshell:_ZN2qs4dbus17DBusObjectManager11qt_metacallEN11QMetaObject4CallEiPPv
quickshell:_ZN2qs4dbus17DBusObjectManager11qt_metacastEPKc
quickshell:_ZN2qs4dbus17DBusObjectManager12setInterfaceERK7QStringS4_RK15QDBusConnection
quickshell:_ZN2qs4dbus17DBusObjectManager15interfacesAddedERK15QDBusObjectPathRK5QHashI7QString4QMapIS6_8QVariantEE
quickshell:_ZN2qs4dbus17DBusObjectManager16staticMetaObjectE
quickshell:_ZN2qs4dbus17DBusObjectManager17interfacesRemovedERK15QDBusObjectPathRK5QListI7QStringE
quickshell:_ZN2qs4dbus17DBusObjectManager19fetchInitialObjectsEv
quickshell:_ZN2qs4dbus17DBusObjectManagerC1EP7QObject
quickshell:_ZN2qs4dbus17DBusObjectManagerC2EP7QObject
quickshell:_ZN2qs4dbus17DBusPropertyGroup11qt_metacallEN11QMetaObject4CallEiPPv
quickshell:_ZN2qs4dbus17DBusPropertyGroup11qt_metacastEPKc
quickshell:_ZN2qs4dbus17DBusPropertyGroup12getAllFailedE10QDBusError
quickshell:_ZN2qs4dbus17DBusPropertyGroup12setInterfaceEP22QDBusAbstractInterface
quickshell:_ZN2qs4dbus17DBusPropertyGroup14attachPropertyEPNS0_16DBusPropertyCoreE
quickshell:_ZN2qs4dbus17DBusPropertyGroup14getAllFinishedEv
quickshell:_ZN2qs4dbus17DBusPropertyGroup15updateAllDirectEv
quickshell:_ZN2qs4dbus17DBusPropertyGroup16staticMetaObjectE
quickshell:_ZN2qs4dbus17DBusPropertyGroup17updatePropertySetERK4QMapI7QString8QVariantEb
quickshell:_ZN2qs4dbus17DBusPropertyGroup18pushPropertyUpdateEPNS0_16DBusPropertyCoreE
quickshell:_ZN2qs4dbus17DBusPropertyGroup18updateAllViaGetAllEv
quickshell:_ZN2qs4dbus17DBusPropertyGroup19onPropertiesChangedERK7QStringRK4QMapIS2_8QVariantERK5QListIS2_E
quickshell:_ZN2qs4dbus17DBusPropertyGroup21requestPropertyUpdateEPNS0_16DBusPropertyCoreE
quickshell:_ZN2qs4dbus17DBusPropertyGroupC1E5QListIPNS0_16DBusPropertyCoreEEP7QObject
quickshell:_ZN2qs4dbus17DBusPropertyGroupC2E5QListIPNS0_16DBusPropertyCoreEEP7QObject
quickshell:_ZN2qs4dbus17demarshallVariantERK8QVariantRK9QMetaTypePv
quickshell:_ZN2qs4dbus25asyncReadPropertyInternalERK9QMetaTypeR22QDBusAbstractInterfaceRK7QStringSt8functionIFvS9_IF10QDBusErrorPvEEEE
quickshell:_ZN2qs4dbus8dbusmenu12DBusMenuItem11qt_metacallEN11QMetaObject4CallEiPPv
quickshell:_ZN2qs4dbus8dbusmenu12DBusMenuItem11qt_metacastEPKc
quickshell:_ZN2qs4dbus8dbusmenu12DBusMenuItem13layoutUpdatedEv
quickshell:_ZN2qs4dbus8dbusmenu12DBusMenuItem16staticMetaObjectE
quickshell:_ZN2qs4dbus8dbusmenu12DBusMenuItem16updatePropertiesERK4QMapI7QString8QVariantERK5QListIS4_E
quickshell:_ZN2qs4dbus8dbusmenu12DBusMenuItem17onChildrenUpdatedEv
quickshell:_ZN2qs4dbus8dbusmenu12DBusMenuItem24setShowChildrenRecursiveEb
quickshell:_ZN2qs4dbus8dbusmenu12DBusMenuItem8childrenEv
quickshell:_ZN2qs4dbus8dbusmenu12DBusMenuItemC1EiPNS1_8DBusMenuEPS2_
quickshell:_ZN2qs4dbus8dbusmenu12DBusMenuItemC2EiPNS1_8DBusMenuEPS2_
quickshell:_ZN2qs4dbus8dbusmenu14DBusMenuHandle10setAddressERK7QStringS5_
quickshell:_ZN2qs4dbus8dbusmenu14DBusMenuHandle11unrefHandleEv
quickshell:_ZN2qs4dbus8dbusmenu14DBusMenuHandle17onMenuPathChangedEv
quickshell:_ZN2qs4dbus8dbusmenu14DBusMenuHandle4menuEv
quickshell:_ZN2qs4dbus8dbusmenu14DBusMenuHandle9refHandleEv
quickshell:_ZN2qs4dbus8dbusmenu16DBusMenuPngImage12requestImageERK7QStringP5QSizeRKS6_
quickshell:_ZN2qs4dbus8dbusmenu8DBusMenu11qt_metacallEN11QMetaObject4CallEiPPv
quickshell:_ZN2qs4dbus8dbusmenu8DBusMenu11qt_metacastEPKc
quickshell:_ZN2qs4dbus8dbusmenu8DBusMenu12updateLayoutEii
quickshell:_ZN2qs4dbus8dbusmenu8DBusMenu13prepareToShowEii
quickshell:_ZN2qs4dbus8dbusmenu8DBusMenu15onLayoutUpdatedEji
quickshell:_ZN2qs4dbus8dbusmenu8DBusMenu15removeRecursiveEi
quickshell:_ZN2qs4dbus8dbusmenu8DBusMenu16staticMetaObjectE
quickshell:_ZN2qs4dbus8dbusmenu8DBusMenu20iconThemePathChangedEv
quickshell:_ZN2qs4dbus8dbusmenu8DBusMenu21updateLayoutRecursiveERK14DBusMenuLayoutPNS1_12DBusMenuItemEi
quickshell:_ZN2qs4dbus8dbusmenu8DBusMenu23onItemPropertiesUpdatedERK5QListI22DBusMenuItemPropertiesERKS3_I25DBusMenuItemPropertyNamesE
quickshell:_ZN2qs4dbus8dbusmenu8DBusMenu4menuEv
quickshell:_ZN2qs4dbus8dbusmenu8DBusMenu9sendEventEiRK7QString
quickshell:_ZN2qs4dbus8dbusmenu8DBusMenuC1ERK7QStringS5_P7QObject
quickshell:_ZN2qs4dbus8dbusmenu8DBusMenuC2ERK7QStringS5_P7QObject
quickshell:_ZN2qs4dbus8dbusmenulsE6QDebugPKNS1_14DBusMenuHandleE
quickshell:_ZN2qs4dbus8dbusmenulsE6QDebugPNS1_12DBusMenuItemE
quickshell:_ZN2qs4dbus8dbusmenulsE6QDebugPNS1_8DBusMenuE
quickshell:_ZN2qs4menu11QsMenuEntry11iconChangedEv
quickshell:_ZN2qs4menu11QsMenuEntry11qt_metacallEN11QMetaObject4CallEiPPv
quickshell:_ZN2qs4menu11QsMenuEntry11qt_metacastEPKc
quickshell:_ZN2qs4menu11QsMenuEntry11textChangedEv
quickshell:_ZN2qs4menu11QsMenuEntry14enabledChangedEv
quickshell:_ZN2qs4menu11QsMenuEntry16staticMetaObjectE
quickshell:_ZN2qs4menu11QsMenuEntry17buttonTypeChangedEv
quickshell:_ZN2qs4menu11QsMenuEntry17checkStateChangedEv
quickshell:_ZN2qs4menu11QsMenuEntry18hasChildrenChangedEv
quickshell:_ZN2qs4menu11QsMenuEntry18isSeparatorChangedEv
quickshell:_ZN2qs4menu11QsMenuEntry3refEv
quickshell:_ZN2qs4menu11QsMenuEntry4menuEv
quickshell:_ZN2qs4menu11QsMenuEntry5unrefEv
quickshell:_ZN2qs4menu11QsMenuEntry6closedEv
quickshell:_ZN2qs4menu11QsMenuEntry6openedEv
quickshell:_ZN2qs4menu11QsMenuEntry7displayEP7QObjectii
quickshell:_ZN2qs4menu11QsMenuEntry8childrenEv
quickshell:_ZN2qs4menu11QsMenuEntry9triggeredEv
quickshell:_ZN2qs4menu12QsMenuAnchor11menuChangedEv
quickshell:_ZN2qs4menu12QsMenuAnchor11qt_metacallEN11QMetaObject4CallEiPPv
quickshell:_ZN2qs4menu12QsMenuAnchor11qt_metacastEPKc
quickshell:_ZN2qs4menu12QsMenuAnchor13onMenuChangedEv
quickshell:_ZN2qs4menu12QsMenuAnchor14visibleChangedEv
quickshell:_ZN2qs4menu12QsMenuAnchor15onMenuDestroyedEv
quickshell:_ZN2qs4menu12QsMenuAnchor16staticMetaObjectE
quickshell:_ZN2qs4menu12QsMenuAnchor4openEv
quickshell:_ZN2qs4menu12QsMenuAnchor5closeEv
quickshell:_ZN2qs4menu12QsMenuAnchor6anchorEv
quickshell:_ZN2qs4menu12QsMenuAnchor6closedEv
quickshell:_ZN2qs4menu12QsMenuAnchor6openedEv
quickshell:_ZN2qs4menu12QsMenuAnchor7setMenuEPNS0_12QsMenuHandleE
quickshell:_ZN2qs4menu12QsMenuAnchor8onClosedEv
quickshell:_ZN2qs4menu12QsMenuAnchorD0Ev
quickshell:_ZN2qs4menu12QsMenuAnchorD1Ev
quickshell:_ZN2qs4menu12QsMenuAnchorD2Ev
quickshell:_ZN2qs4menu12QsMenuHandle11menuChangedEv
quickshell:_ZN2qs4menu12QsMenuHandle11qt_metacallEN11QMetaObject4CallEiPPv
quickshell:_ZN2qs4menu12QsMenuHandle11qt_metacastEPKc
quickshell:_ZN2qs4menu12QsMenuHandle16staticMetaObjectE
quickshell:_ZN2qs4menu12QsMenuOpener11menuChangedEv
quickshell:_ZN2qs4menu12QsMenuOpener11qt_metacallEN11QMetaObject4CallEiPPv
quickshell:_ZN2qs4menu12QsMenuOpener11qt_metacastEPKc
quickshell:_ZN2qs4menu12QsMenuOpener15childrenChangedEv
quickshell:_ZN2qs4menu12QsMenuOpener15onMenuDestroyedEv
quickshell:_ZN2qs4menu12QsMenuOpener16staticMetaObjectE
quickshell:_ZN2qs4menu12QsMenuOpener7setMenuEPNS0_12QsMenuHandleE
quickshell:_ZN2qs4menu12QsMenuOpener8childrenEv
quickshell:_ZN2qs4menu12QsMenuOpenerD0Ev
quickshell:_ZN2qs4menu12QsMenuOpenerD1Ev
quickshell:_ZN2qs4menu12QsMenuOpenerD2Ev
quickshell:_ZN2qs4menu16QsMenuButtonType11qt_metacallEN11QMetaObject4CallEiPPv
quickshell:_ZN2qs4menu16QsMenuButtonType11qt_metacastEPKc
quickshell:_ZN2qs4menu16QsMenuButtonType16staticMetaObjectE
quickshell:_ZN2qs4menu16QsMenuButtonType8toStringENS1_4EnumE
quickshell:_ZN2qs4menu8platform17PlatformMenuEntry10addToQMenuEPNS1_17PlatformMenuQMenuE
quickshell:_ZN2qs4menu8platform17PlatformMenuEntry11qt_metacallEN11QMetaObject4CallEiPPv
quickshell:_ZN2qs4menu8platform17PlatformMenuEntry11qt_metacastEPKc
quickshell:_ZN2qs4menu8platform17PlatformMenuEntry13clearChildrenEv
quickshell:_ZN2qs4menu8platform17PlatformMenuEntry13onAboutToHideEv
quickshell:_ZN2qs4menu8platform17PlatformMenuEntry13onAboutToShowEv
quickshell:_ZN2qs4menu8platform17PlatformMenuEntry13onIconChangedEv
quickshell:_ZN2qs4menu8platform17PlatformMenuEntry13onTextChangedEv
quickshell:_ZN2qs4menu8platform17PlatformMenuEntry14relayoutParentEv
quickshell:_ZN2qs4menu8platform17PlatformMenuEntry16onChildDestroyedEv
quickshell:_ZN2qs4menu8platform17PlatformMenuEntry16onEnabledChangedEv
quickshell:_ZN2qs4menu8platform17PlatformMenuEntry16staticMetaObjectE
quickshell:_ZN2qs4menu8platform17PlatformMenuEntry17onActionTriggeredEv
quickshell:_ZN2qs4menu8platform17PlatformMenuEntry19onButtonTypeChangedEv
quickshell:_ZN2qs4menu8platform17PlatformMenuEntry19onCheckStateChangedEv
quickshell:_ZN2qs4menu8platform17PlatformMenuEntry20registerCreationHookESt8functionIFvPNS1_17PlatformMenuQMenuEEE
quickshell:_ZN2qs4menu8platform17PlatformMenuEntry6closedEv
quickshell:_ZN2qs4menu8platform17PlatformMenuEntry7displayEP11PopupAnchor
quickshell:_ZN2qs4menu8platform17PlatformMenuEntry7displayEP7QObjectii
quickshell:_ZN2qs4menu8platform17PlatformMenuEntry8relayoutEv
quickshell:_ZN2qs4menu8platform17PlatformMenuEntryC1EPNS0_11QsMenuEntryE
quickshell:_ZN2qs4menu8platform17PlatformMenuEntryC2EPNS0_11QsMenuEntryE
quickshell:_ZN2qs4menu8platform17PlatformMenuEntryD0Ev
quickshell:_ZN2qs4menu8platform17PlatformMenuEntryD1Ev
quickshell:_ZN2qs4menu8platform17PlatformMenuEntryD2Ev
quickshell:_ZN2qs4menu8platform17PlatformMenuQMenu10setVisibleEb
quickshell:_ZN2qs4menu8platform17PlatformMenuQMenuD0Ev
quickshell:_ZN2qs4menu8platform17PlatformMenuQMenuD1Ev
quickshell:_ZN2qs4menu8platform17PlatformMenuQMenuD2Ev
quickshell:_ZN2qs4niri3ipc10NiriIpcQml10socketPathEv
quickshell:_ZN2qs4niri3ipc10NiriIpcQml10workspacesEv
quickshell:_ZN2qs4niri3ipc10NiriIpcQml11qt_metacallEN11QMetaObject4CallEiPPv
quickshell:_ZN2qs4niri3ipc10NiriIpcQml11qt_metacastEPKc
quickshell:_ZN2qs4niri3ipc10NiriIpcQml14outputsUpdatedEv
quickshell:_ZN2qs4niri3ipc10NiriIpcQml14refreshOutputsEv
quickshell:_ZN2qs4niri3ipc10NiriIpcQml14refreshWindowsEv
quickshell:_ZN2qs4niri3ipc10NiriIpcQml14windowsUpdatedEv
quickshell:_ZN2qs4niri3ipc10NiriIpcQml16staticMetaObjectE
quickshell:_ZN2qs4niri3ipc10NiriIpcQml17refreshWorkspacesEv
quickshell:_ZN2qs4niri3ipc10NiriIpcQml17workspacesUpdatedEv
quickshell:_ZN2qs4niri3ipc10NiriIpcQml20focusedWindowChangedEv
quickshell:_ZN2qs4niri3ipc10NiriIpcQml21bindableFocusedWindowEv
quickshell:_ZN2qs4niri3ipc10NiriIpcQml21overviewActiveChangedEv
quickshell:_ZN2qs4niri3ipc10NiriIpcQml22bindableOverviewActiveEv
quickshell:_ZN2qs4niri3ipc10NiriIpcQml22keyboardLayoutSwitchedEv
quickshell:_ZN2qs4niri3ipc10NiriIpcQml22keyboardLayoutsChangedEv
quickshell:_ZN2qs4niri3ipc10NiriIpcQml25currentKeyboardLayoutNameEv
quickshell:_ZN2qs4niri3ipc10NiriIpcQml27bindableKeyboardLayoutNamesEv
quickshell:_ZN2qs4niri3ipc10NiriIpcQml34bindableCurrentKeyboardLayoutIndexEv
quickshell:_ZN2qs4niri3ipc10NiriIpcQml7outputsEv
quickshell:_ZN2qs4niri3ipc10NiriIpcQml7windowsEv
quickshell:_ZN2qs4niri3ipc10NiriIpcQml8dispatchERK5QListI7QStringE
quickshell:_ZN2qs4niri3ipc10NiriIpcQml8rawEventEPNS1_12NiriIpcEventE
quickshell:_ZN2qs4niri3ipc10NiriIpcQmlC1Ev
quickshell:_ZN2qs4niri3ipc10NiriIpcQmlC2Ev
quickshell:_ZN2qs4niri3ipc10NiriOutput11nameChangedEv
quickshell:_ZN2qs4niri3ipc10NiriOutput11qt_metacallEN11QMetaObject4CallEiPPv
quickshell:_ZN2qs4niri3ipc10NiriOutput11qt_metacastEPKc
quickshell:_ZN2qs4niri3ipc10NiriOutput12scaleChangedEv
quickshell:_ZN2qs4niri3ipc10NiriOutput12widthChangedEv
quickshell:_ZN2qs4niri3ipc10NiriOutput13heightChangedEv
quickshell:_ZN2qs4niri3ipc10NiriOutput14updateFromJsonERK11QJsonObject
quickshell:_ZN2qs4niri3ipc10NiriOutput16connectedChangedEv
quickshell:_ZN2qs4niri3ipc10NiriOutput16staticMetaObjectE
quickshell:_ZN2qs4niri3ipc10NiriOutput16transformChangedEv
quickshell:_ZN2qs4niri3ipc10NiriOutput17vrrEnabledChangedEv
quickshell:_ZN2qs4niri3ipc10NiriOutput18refreshRateChangedEv
quickshell:_ZN2qs4niri3ipc10NiriOutput19vrrSupportedChangedEv
quickshell:_ZN2qs4niri3ipc10NiriOutput20physicalWidthChangedEv
quickshell:_ZN2qs4niri3ipc10NiriOutput21physicalHeightChangedEv
quickshell:_ZN2qs4niri3ipc10NiriOutput8xChangedEv
quickshell:_ZN2qs4niri3ipc10NiriOutput8yChangedEv
quickshell:_ZN2qs4niri3ipc10NiriWindow10setFocusedEb
quickshell:_ZN2qs4niri3ipc10NiriWindow11qt_metacallEN11QMetaObject4CallEiPPv
quickshell:_ZN2qs4niri3ipc10NiriWindow11qt_metacastEPKc
quickshell:_ZN2qs4niri3ipc10NiriWindow12appIdChangedEv
quickshell:_ZN2qs4niri3ipc10NiriWindow12titleChangedEv
quickshell:_ZN2qs4niri3ipc10NiriWindow12updateLayoutERK11QJsonObject
quickshell:_ZN2qs4niri3ipc10NiriWindow13outputChangedEv
quickshell:_ZN2qs4niri3ipc10NiriWindow14focusedChangedEv
quickshell:_ZN2qs4niri3ipc10NiriWindow14updateFromJsonERK11QJsonObjectRK7QString
quickshell:_ZN2qs4niri3ipc10NiriWindow16positionXChangedEv
quickshell:_ZN2qs4niri3ipc10NiriWindow16positionYChangedEv
quickshell:_ZN2qs4niri3ipc10NiriWindow16staticMetaObjectE
quickshell:_ZN2qs4niri3ipc10NiriWindow17isFloatingChangedEv
quickshell:_ZN2qs4niri3ipc10NiriWindow18workspaceIdChangedEv
quickshell:_ZN2qs4niri3ipc10NiriWindow24updatePositionFromLayoutERK11QJsonObject
quickshell:_ZN2qs4niri3ipc10NiriWindow9idChangedEv
quickshell:_ZN2qs4niri3ipc10NiriWindow9setOutputERK7QString
quickshell:_ZN2qs4niri3ipc12NiriIpcEvent11qt_metacallEN11QMetaObject4CallEiPPv
quickshell:_ZN2qs4niri3ipc12NiriIpcEvent11qt_metacastEPKc
quickshell:_ZN2qs4niri3ipc12NiriIpcEvent16staticMetaObjectE
quickshell:_ZN2qs4niri3ipc12NiriIpcEvent3setERK7QStringRK11QJsonObject
quickshell:_ZN2qs4niri3ipc12NiriIpcEvent5resetEv
quickshell:_ZN2qs4niri3ipc13NiriWorkspace10idxChangedEv
quickshell:_ZN2qs4niri3ipc13NiriWorkspace10setFocusedEb
quickshell:_ZN2qs4niri3ipc13NiriWorkspace11nameChangedEv
quickshell:_ZN2qs4niri3ipc13NiriWorkspace11qt_metacallEN11QMetaObject4CallEiPPv
quickshell:_ZN2qs4niri3ipc13NiriWorkspace11qt_metacastEPKc
quickshell:_ZN2qs4niri3ipc13NiriWorkspace13activeChangedEv
quickshell:_ZN2qs4niri3ipc13NiriWorkspace13outputChangedEv
quickshell:_ZN2qs4niri3ipc13NiriWorkspace13urgentChangedEv
quickshell:_ZN2qs4niri3ipc13NiriWorkspace14focusedChangedEv
quickshell:_ZN2qs4niri3ipc13NiriWorkspace14updateFromJsonERK11QJsonObject
quickshell:_ZN2qs4niri3ipc13NiriWorkspace15occupiedChangedEv
quickshell:_ZN2qs4niri3ipc13NiriWorkspace16staticMetaObjectE
quickshell:_ZN2qs4niri3ipc13NiriWorkspace17setActiveWindowIdEx
quickshell:_ZN2qs4niri3ipc13NiriWorkspace21activeWindowIdChangedEv
quickshell:_ZN2qs4niri3ipc13NiriWorkspace9idChangedEv
quickshell:_ZN2qs4niri3ipc13NiriWorkspace9setActiveEb
quickshell:_ZN2qs4niri3ipc7NiriIpc10workspacesEv
quickshell:_ZN2qs4niri3ipc7NiriIpc11makeRequestERK10QByteArrayRKSt8functionIFvbRK11QJsonObjectEE
quickshell:_ZN2qs4niri3ipc7NiriIpc11qt_metacallEN11QMetaObject4CallEiPPv
quickshell:_ZN2qs4niri3ipc7NiriIpc11qt_metacastEPKc
quickshell:_ZN2qs4niri3ipc7NiriIpc14findWindowByIdEx
quickshell:_ZN2qs4niri3ipc7NiriIpc14outputsUpdatedEv
quickshell:_ZN2qs4niri3ipc7NiriIpc14refreshOutputsEv
quickshell:_ZN2qs4niri3ipc7NiriIpc14refreshWindowsEv
quickshell:_ZN2qs4niri3ipc7NiriIpc14windowsUpdatedEv
quickshell:_ZN2qs4niri3ipc7NiriIpc16eventSocketReadyEv
quickshell:_ZN2qs4niri3ipc7NiriIpc16findOutputByNameERK7QString
quickshell:_ZN2qs4niri3ipc7NiriIpc16staticMetaObjectE
quickshell:_ZN2qs4niri3ipc7NiriIpc17compareWorkspacesEPNS1_13NiriWorkspaceES4_
quickshell:_ZN2qs4niri3ipc7NiriIpc17findWorkspaceByIdEx
quickshell:_ZN2qs4niri3ipc7NiriIpc17refreshWorkspacesEv
quickshell:_ZN2qs4niri3ipc7NiriIpc17workspacesUpdatedEv
quickshell:_ZN2qs4niri3ipc7NiriIpc18handleWindowClosedERK11QJsonObject
quickshell:_ZN2qs4niri3ipc7NiriIpc19resolveWindowOutputEx
quickshell:_ZN2qs4niri3ipc7NiriIpc20eventSocketConnectedEv
quickshell:_ZN2qs4niri3ipc7NiriIpc20focusedWindowChangedEv
quickshell:_ZN2qs4niri3ipc7NiriIpc20handleWindowsChangedERK11QJsonObject
quickshell:_ZN2qs4niri3ipc7NiriIpc21overviewActiveChangedEv
quickshell:_ZN2qs4niri3ipc7NiriIpc22keyboardLayoutSwitchedEv
quickshell:_ZN2qs4niri3ipc7NiriIpc22keyboardLayoutsChangedEv
quickshell:_ZN2qs4niri3ipc7NiriIpc22updateWindowsFromArrayERK10QJsonArray
quickshell:_ZN2qs4niri3ipc7NiriIpc23eventSocketStateChangedEN12QLocalSocket16LocalSocketStateE
quickshell:_ZN2qs4niri3ipc7NiriIpc23handleWorkspacesChangedERK11QJsonObject
quickshell:_ZN2qs4niri3ipc7NiriIpc23updateOutputsFromObjectERK11QJsonObject
quickshell:_ZN2qs4niri3ipc7NiriIpc24handleWindowFocusChangedERK11QJsonObject
quickshell:_ZN2qs4niri3ipc7NiriIpc24handleWorkspaceActivatedERK11QJsonObject
quickshell:_ZN2qs4niri3ipc7NiriIpc25updateWorkspacesFromArrayERK10QJsonArray
quickshell:_ZN2qs4niri3ipc7NiriIpc26handleWindowLayoutsChangedERK11QJsonObject
quickshell:_ZN2qs4niri3ipc7NiriIpc27handleWindowOpenedOrChangedERK11QJsonObject
quickshell:_ZN2qs4niri3ipc7NiriIpc28handleKeyboardLayoutSwitchedERK11QJsonObject
quickshell:_ZN2qs4niri3ipc7NiriIpc28handleKeyboardLayoutsChangedERK11QJsonObject
quickshell:_ZN2qs4niri3ipc7NiriIpc28handleOverviewOpenedOrClosedERK11QJsonObject
quickshell:_ZN2qs4niri3ipc7NiriIpc34handleWorkspaceActiveWindowChangedERK11QJsonObject
quickshell:_ZN2qs4niri3ipc7NiriIpc7onEventERK11QJsonObject
quickshell:_ZN2qs4niri3ipc7NiriIpc7outputsEv
quickshell:_ZN2qs4niri3ipc7NiriIpc7windowsEv
quickshell:_ZN2qs4niri3ipc7NiriIpc8dispatchERK5QListI7QStringE
quickshell:_ZN2qs4niri3ipc7NiriIpc8instanceEv
quickshell:_ZN2qs4niri3ipc7NiriIpc8rawEventEPNS1_12NiriIpcEventE
quickshell:_ZN2qs4niri3ipc7NiriIpc9connectedEv
quickshell:_ZN2qs4niri3ipc7NiriIpcC1Ev
quickshell:_ZN2qs4niri3ipc7NiriIpcC2Ev
quickshell:_ZN2qs4scan3env10PreprocEnv10hasVersionEiiRK5QListI7QStringE
quickshell:_ZN2qs4scan3env10PreprocEnv11qt_metacallEN11QMetaObject4CallEiPPv
quickshell:_ZN2qs4scan3env10PreprocEnv11qt_metacastEPKc
quickshell:_ZN2qs4scan3env10PreprocEnv16staticMetaObjectE
quickshell:_ZN2qs4scan3env10PreprocEnv3envERK7QString
quickshell:_ZN2qs4scan3env10PreprocEnv8isEnvSetERK7QString
quickshell:_ZN2qs5crash9CrashInfo8INSTANCEE
quickshell:_ZN2qs5debug12lintItemTreeEP10QQuickItem
quickshell:_ZN2qs5debug14lintObjectTreeEP7QObject
quickshell:_ZN2qs6Common11LAUNCH_TIMEE
quickshell:_ZN2qs6launch10exitDaemonEi
quickshell:_ZN2qs6launch10runCommandEiPPcP16QCoreApplication
quickshell:_ZN2qs6launch11DAEMON_PIPEE
quickshell:_ZN2qs6launch12parseCommandEiPPcRNS0_12CommandStateE
quickshell:_ZN2qs6launch20getDisplayConnectionEv
quickshell:_ZN2qs6launch4mainEiPPc
quickshell:_ZN2qs6launch6launchERKNS0_10LaunchArgsEPPcP16QCoreApplication
quickshell:_ZN2qs7network10DeviceType11qt_metacallEN11QMetaObject4CallEiPPv
quickshell:_ZN2qs7network10DeviceType11qt_metacastEPKc
quickshell:_ZN2qs7network10DeviceType16staticMetaObjectE
quickshell:_ZN2qs7network10DeviceType8toStringENS1_4EnumE
quickshell:_ZN2qs7network10Networking11deviceAddedEPNS0_13NetworkDeviceE
quickshell:_ZN2qs7network10Networking11qt_metacallEN11QMetaObject4CallEiPPv
quickshell:_ZN2qs7network10Networking11qt_metacastEPKc
quickshell:_ZN2qs7network10Networking13deviceRemovedEPNS0_13NetworkDeviceE
quickshell:_ZN2qs7network10Networking14setWifiEnabledEb
quickshell:_ZN2qs7network10Networking16staticMetaObjectE
quickshell:_ZN2qs7network10Networking18wifiEnabledChangedEv
quickshell:_ZN2qs7network10Networking21requestSetWifiEnabledEb
quickshell:_ZN2qs7network10Networking26wifiHardwareEnabledChangedEv
quickshell:_ZN2qs7network10NetworkingC1EP7QObject
quickshell:_ZN2qs7network10NetworkingC2EP7QObject
quickshell:_ZN2qs7network10WifiDevice11modeChangedEv
quickshell:_ZN2qs7network10WifiDevice11qt_metacallEN11QMetaObject4CallEiPPv
quickshell:_ZN2qs7network10WifiDevice11qt_metacastEPKc
quickshell:_ZN2qs7network10WifiDevice12networkAddedEPNS0_11WifiNetworkE
quickshell:_ZN2qs7network10WifiDevice14networkRemovedEPNS0_11WifiNetworkE
quickshell:_ZN2qs7network10WifiDevice16staticMetaObjectE
quickshell:_ZN2qs7network10WifiDevice17setScannerEnabledEb
quickshell:_ZN2qs7network10WifiDevice21scannerEnabledChangedEb
quickshell:_ZN2qs7network10WifiDeviceC1EP7QObject
quickshell:_ZN2qs7network10WifiDeviceC2EP7QObject
quickshell:_ZN2qs7network11NM80211Mode11qt_metacallEN11QMetaObject4CallEiPPv
quickshell:_ZN2qs7network11NM80211Mode11qt_metacastEPKc
quickshell:_ZN2qs7network11NM80211Mode16staticMetaObjectE
quickshell:_ZN2qs7network11WifiNetwork10disconnectEv
quickshell:_ZN2qs7network11WifiNetwork11qt_metacallEN11QMetaObject4CallEiPPv
quickshell:_ZN2qs7network11WifiNetwork11qt_metacastEPKc
quickshell:_ZN2qs7network11WifiNetwork12knownChangedEv
quickshell:_ZN2qs7network11WifiNetwork13requestForgetEv
quickshell:_ZN2qs7network11WifiNetwork14requestConnectEv
quickshell:_ZN2qs7network11WifiNetwork15nmReasonChangedEv
quickshell:_ZN2qs7network11WifiNetwork15securityChangedEv
quickshell:_ZN2qs7network11WifiNetwork16staticMetaObjectE
quickshell:_ZN2qs7network11WifiNetwork17requestDisconnectEv
quickshell:_ZN2qs7network11WifiNetwork21signalStrengthChangedEv
quickshell:_ZN2qs7network11WifiNetwork6forgetEv
quickshell:_ZN2qs7network11WifiNetwork7connectEv
quickshell:_ZN2qs7network11WifiNetworkC1E7QStringP7QObject
quickshell:_ZN2qs7network11WifiNetworkC2E7QStringP7QObject
quickshell:_ZN2qs7network12NMDeviceType11qt_metacallEN11QMetaObject4CallEiPPv
quickshell:_ZN2qs7network12NMDeviceType11qt_metacastEPKc
quickshell:_ZN2qs7network12NMDeviceType16staticMetaObjectE
quickshell:_ZN2qs7network12NetworkState11qt_metacallEN11QMetaObject4CallEiPPv
quickshell:_ZN2qs7network12NetworkState11qt_metacastEPKc
quickshell:_ZN2qs7network12NetworkState16staticMetaObjectE
quickshell:_ZN2qs7network12NetworkState8toStringENS1_4EnumE
quickshell:_ZN2qs7network13NMAccessPoint11modeChangedENS0_11NM80211Mode4EnumE
quickshell:_ZN2qs7network13NMAccessPoint11qt_metacallEN11QMetaObject4CallEiPPv
quickshell:_ZN2qs7network13NMAccessPoint11qt_metacastEPKc
quickshell:_ZN2qs7network13NMAccessPoint11ssidChangedERK10QByteArray
quickshell:_ZN2qs7network13NMAccessPoint12flagsChangedENS0_14NM80211ApFlags4EnumE
quickshell:_ZN2qs7network13NMAccessPoint15rsnFlagsChangedENS0_22NM80211ApSecurityFlags4EnumE
quickshell:_ZN2qs7network13NMAccessPoint15securityChangedENS0_16WifiSecurityType4EnumE
quickshell:_ZN2qs7network13NMAccessPoint15wpaFlagsChangedENS0_22NM80211ApSecurityFlags4EnumE
quickshell:_ZN2qs7network13NMAccessPoint16staticMetaObjectE
quickshell:_ZN2qs7network13NMAccessPoint21signalStrengthChangedEh
quickshell:_ZN2qs7network13NMAccessPoint6loadedEv
quickshell:_ZN2qs7network13NMAccessPointC1ERK7QStringP7QObject
quickshell:_ZN2qs7network13NMAccessPointC2ERK7QStringP7QObject
quickshell:_ZN2qs7network13NMDeviceState11qt_metacallEN11QMetaObject4CallEiPPv
quickshell:_ZN2qs7network13NMDeviceState11qt_metacastEPKc
quickshell:_ZN2qs7network13NMDeviceState16staticMetaObjectE
quickshell:_ZN2qs7network13NMDeviceState8toStringENS1_4EnumE
quickshell:_ZN2qs7network13NetworkDevice10disconnectEv
quickshell:_ZN2qs7network13NetworkDevice11nameChangedEv
quickshell:_ZN2qs7network13NetworkDevice11qt_metacallEN11QMetaObject4CallEiPPv
quickshell:_ZN2qs7network13NetworkDevice11qt_metacastEPKc
quickshell:_ZN2qs7network13NetworkDevice12stateChangedEv
quickshell:_ZN2qs7network13NetworkDevice14addressChangedEv
quickshell:_ZN2qs7network13NetworkDevice14nmStateChangedEv
quickshell:_ZN2qs7network13NetworkDevice14setAutoconnectEb
quickshell:_ZN2qs7network13NetworkDevice16connectedChangedEv
quickshell:_ZN2qs7network13NetworkDevice16staticMetaObjectE
quickshell:_ZN2qs7network13NetworkDevice17requestDisconnectEv
quickshell:_ZN2qs7network13NetworkDevice18autoconnectChangedEv
quickshell:_ZN2qs7network13NetworkDevice21requestSetAutoconnectEb
quickshell:_ZN2qs7network13NetworkDeviceC1ENS0_10DeviceType4EnumEP7QObject
quickshell:_ZN2qs7network13NetworkDeviceC2ENS0_10DeviceType4EnumEP7QObject
quickshell:_ZN2qs7network14NM80211ApFlags11qt_metacallEN11QMetaObject4CallEiPPv
quickshell:_ZN2qs7network14NM80211ApFlags11qt_metacastEPKc
quickshell:_ZN2qs7network14NM80211ApFlags16staticMetaObjectE
quickshell:_ZN2qs7network14NetworkBackend11qt_metacallEN11QMetaObject4CallEiPPv
quickshell:_ZN2qs7network14NetworkBackend11qt_metacastEPKc
quickshell:_ZN2qs7network14NetworkBackend16staticMetaObjectE
quickshell:_ZN2qs7network14NetworkManager11deviceAddedEPNS0_13NetworkDeviceE
quickshell:_ZN2qs7network14NetworkManager11qt_metacallEN11QMetaObject4CallEiPPv
quickshell:_ZN2qs7network14NetworkManager11qt_metacastEPKc
quickshell:_ZN2qs7network14NetworkManager13deviceRemovedEPNS0_13NetworkDeviceE
quickshell:_ZN2qs7network14NetworkManager14registerDeviceERK7QString
quickshell:_ZN2qs7network14NetworkManager14setWifiEnabledEb
quickshell:_ZN2qs7network14NetworkManager15registerDevicesEv
quickshell:_ZN2qs7network14NetworkManager16staticMetaObjectE
quickshell:_ZN2qs7network14NetworkManager17onDevicePathAddedERK15QDBusObjectPath
quickshell:_ZN2qs7network14NetworkManager18activateConnectionERK15QDBusObjectPathS4_
quickshell:_ZN2qs7network14NetworkManager18wifiEnabledChangedEb
quickshell:_ZN2qs7network14NetworkManager19onDevicePathRemovedERK15QDBusObjectPath
quickshell:_ZN2qs7network14NetworkManager20removeFrontendDeviceEPNS0_8NMDeviceE
quickshell:_ZN2qs7network14NetworkManager22registerFrontendDeviceENS0_12NMDeviceType4EnumEPNS0_8NMDeviceE
quickshell:_ZN2qs7network14NetworkManager24addAndActivateConnectionERK4QMapI7QStringS2_IS3_8QVariantEERK15QDBusObjectPathSB_
quickshell:_ZN2qs7network14NetworkManager26wifiHardwareEnabledChangedEb
quickshell:_ZN2qs7network14NetworkManager4initEv
quickshell:_ZN2qs7network14NetworkManagerC1EP7QObject
quickshell:_ZN2qs7network14NetworkManagerC2EP7QObject
quickshell:_ZN2qs7network14WifiDeviceMode11qt_metacallEN11QMetaObject4CallEiPPv
quickshell:_ZN2qs7network14WifiDeviceMode11qt_metacastEPKc
quickshell:_ZN2qs7network14WifiDeviceMode16staticMetaObjectE
quickshell:_ZN2qs7network14WifiDeviceMode8toStringENS1_4EnumE
quickshell:_ZN2qs7network15securityIsValidENS0_16WifiSecurityType4EnumENS0_22NMWirelessCapabilities4EnumEbNS0_14NM80211ApFlags4EnumENS0_22NM80211ApSecurityFlags4EnumES8_
quickshell:_ZN2qs7network16NMWirelessDevice11modeChangedENS0_11NM80211Mode4EnumE
quickshell:_ZN2qs7network16NMWirelessDevice11qt_metacallEN11QMetaObject4CallEiPPv
quickshell:_ZN2qs7network16NMWirelessDevice11qt_metacastEPKc
quickshell:_ZN2qs7network16NMWirelessDevice12initWirelessEv
quickshell:_ZN2qs7network16NMWirelessDevice12networkAddedEPNS0_11WifiNetworkE
quickshell:_ZN2qs7network16NMWirelessDevice13onScanTimeoutEv
quickshell:_ZN2qs7network16NMWirelessDevice13removeNetworkEv
quickshell:_ZN2qs7network16NMWirelessDevice14networkRemovedEPNS0_11WifiNetworkE
quickshell:_ZN2qs7network16NMWirelessDevice15lastScanChangedE9QDateTime
quickshell:_ZN2qs7network16NMWirelessDevice15registerNetworkERK7QString
quickshell:_ZN2qs7network16NMWirelessDevice15scanningChangedEb
quickshell:_ZN2qs7network16NMWirelessDevice16staticMetaObjectE
quickshell:_ZN2qs7network16NMWirelessDevice17accessPointLoadedEPNS0_13NMAccessPointE
quickshell:_ZN2qs7network16NMWirelessDevice17onScanningChangedEb
quickshell:_ZN2qs7network16NMWirelessDevice18accessPointRemovedEPNS0_13NMAccessPointE
quickshell:_ZN2qs7network16NMWirelessDevice18onAccessPointAddedERK15QDBusObjectPath
quickshell:_ZN2qs7network16NMWirelessDevice18onConnectionLoadedEPNS0_20NMConnectionSettingsE
quickshell:_ZN2qs7network16NMWirelessDevice19capabilitiesChangedENS0_22NMWirelessCapabilities4EnumE
quickshell:_ZN2qs7network16NMWirelessDevice19onAccessPointLoadedEPNS0_13NMAccessPointE
quickshell:_ZN2qs7network16NMWirelessDevice19registerAccessPointERK7QString
quickshell:_ZN2qs7network16NMWirelessDevice20onAccessPointRemovedERK15QDBusObjectPath
quickshell:_ZN2qs7network16NMWirelessDevice20registerAccessPointsEv
quickshell:_ZN2qs7network16NMWirelessDevice21removeFrontendNetworkEPNS0_17NMWirelessNetworkE
quickshell:_ZN2qs7network16NMWirelessDevice23registerFrontendNetworkEPNS0_17NMWirelessNetworkE
quickshell:_ZN2qs7network16NMWirelessDevice24activeAccessPointChangedERK15QDBusObjectPath
quickshell:_ZN2qs7network16NMWirelessDevice24onActiveConnectionLoadedEPNS0_18NMActiveConnectionE
quickshell:_ZN2qs7network16NMWirelessDeviceC1ERK7QStringP7QObject
quickshell:_ZN2qs7network16NMWirelessDeviceC2ERK7QStringP7QObject
quickshell:_ZN2qs7network16WifiSecurityType11qt_metacallEN11QMetaObject4CallEiPPv
quickshell:_ZN2qs7network16WifiSecurityType11qt_metacastEPKc
quickshell:_ZN2qs7network16WifiSecurityType16staticMetaObjectE
quickshell:_ZN2qs7network16WifiSecurityType8toStringENS1_4EnumE
quickshell:_ZN2qs7network17NMConnectionState11qt_metacallEN11QMetaObject4CallEiPPv
quickshell:_ZN2qs7network17NMConnectionState11qt_metacastEPKc
quickshell:_ZN2qs7network17NMConnectionState16staticMetaObjectE
quickshell:_ZN2qs7network17NMWirelessNetwork11disappearedEv
quickshell:_ZN2qs7network17NMWirelessNetwork11qt_metacallEN11QMetaObject4CallEiPPv
quickshell:_ZN2qs7network17NMWirelessNetwork11qt_metacastEPKc
quickshell:_ZN2qs7network17NMWirelessNetwork12knownChangedEb
quickshell:_ZN2qs7network17NMWirelessNetwork12stateChangedENS0_17NMConnectionState4EnumE
quickshell:_ZN2qs7network17NMWirelessNetwork13addConnectionEPNS0_20NMConnectionSettingsE
quickshell:_ZN2qs7network17NMWirelessNetwork13reasonChangedENS0_23NMConnectionStateReason4EnumE
quickshell:_ZN2qs7network17NMWirelessNetwork14addAccessPointEPNS0_13NMAccessPointE
quickshell:_ZN2qs7network17NMWirelessNetwork15securityChangedENS0_16WifiSecurityType4EnumE
quickshell:_ZN2qs7network17NMWirelessNetwork16staticMetaObjectE
quickshell:_ZN2qs7network17NMWirelessNetwork17updateReferenceApEv
quickshell:_ZN2qs7network17NMWirelessNetwork17visibilityChangedEb
quickshell:_ZN2qs7network17NMWirelessNetwork19activeApPathChangedE7QString
quickshell:_ZN2qs7network17NMWirelessNetwork19addActiveConnectionEPNS0_18NMActiveConnectionE
quickshell:_ZN2qs7network17NMWirelessNetwork19capabilitiesChangedENS0_22NMWirelessCapabilities4EnumE
quickshell:_ZN2qs7network17NMWirelessNetwork21signalStrengthChangedEh
quickshell:_ZN2qs7network17NMWirelessNetwork25updateReferenceConnectionEv
quickshell:_ZN2qs7network17NMWirelessNetwork6forgetEv
quickshell:_ZN2qs7network17NMWirelessNetworkC1E7QStringP7QObject
quickshell:_ZN2qs7network17NMWirelessNetworkC2E7QStringP7QObject
quickshell:_ZN2qs7network18NMActiveConnection11qt_metacallEN11QMetaObject4CallEiPPv
quickshell:_ZN2qs7network18NMActiveConnection11qt_metacastEPKc
quickshell:_ZN2qs7network18NMActiveConnection11uuidChangedERK7QString
quickshell:_ZN2qs7network18NMActiveConnection12stateChangedENS0_17NMConnectionState4EnumE
quickshell:_ZN2qs7network18NMActiveConnection14onStateChangedEjj
quickshell:_ZN2qs7network18NMActiveConnection16staticMetaObjectE
quickshell:_ZN2qs7network18NMActiveConnection17connectionChangedE15QDBusObjectPath
quickshell:_ZN2qs7network18NMActiveConnection18stateReasonChangedENS0_23NMConnectionStateReason4EnumE
quickshell:_ZN2qs7network18NMActiveConnection6loadedEv
quickshell:_ZN2qs7network18NMActiveConnectionC1ERK7QStringP7QObject
quickshell:_ZN2qs7network18NMActiveConnectionC2ERK7QStringP7QObject
quickshell:_ZN2qs7network18NetworkBackendType11qt_metacallEN11QMetaObject4CallEiPPv
quickshell:_ZN2qs7network18NetworkBackendType11qt_metacastEPKc
quickshell:_ZN2qs7network18NetworkBackendType16staticMetaObjectE
quickshell:_ZN2qs7network20NMConnectionSettings11qt_metacallEN11QMetaObject4CallEiPPv
quickshell:_ZN2qs7network20NMConnectionSettings11qt_metacastEPKc
quickshell:_ZN2qs7network20NMConnectionSettings11ssidChangedE7QString
quickshell:_ZN2qs7network20NMConnectionSettings14updateSettingsEv
quickshell:_ZN2qs7network20NMConnectionSettings15securityChangedENS0_16WifiSecurityType4EnumE
quickshell:_ZN2qs7network20NMConnectionSettings15settingsChangedE4QMapI7QStringS2_IS3_8QVariantEE
quickshell:_ZN2qs7network20NMConnectionSettings16staticMetaObjectE
quickshell:_ZN2qs7network20NMConnectionSettings6forgetEv
quickshell:_ZN2qs7network20NMConnectionSettings6loadedEv
quickshell:_ZN2qs7network20NMConnectionSettingsC1ERK7QStringP7QObject
quickshell:_ZN2qs7network20NMConnectionSettingsC2ERK7QStringP7QObject
quickshell:_ZN2qs7network21DeviceConnectionState11qt_metacallEN11QMetaObject4CallEiPPv
quickshell:_ZN2qs7network21DeviceConnectionState11qt_metacastEPKc
quickshell:_ZN2qs7network21DeviceConnectionState16staticMetaObjectE
quickshell:_ZN2qs7network21DeviceConnectionState8toStringENS1_4EnumE
quickshell:_ZN2qs7network22NM80211ApSecurityFlags11qt_metacallEN11QMetaObject4CallEiPPv
quickshell:_ZN2qs7network22NM80211ApSecurityFlags11qt_metacastEPKc
quickshell:_ZN2qs7network22NM80211ApSecurityFlags16staticMetaObjectE
quickshell:_ZN2qs7network22NMWirelessCapabilities11qt_metacallEN11QMetaObject4CallEiPPv
quickshell:_ZN2qs7network22NMWirelessCapabilities11qt_metacastEPKc
quickshell:_ZN2qs7network22NMWirelessCapabilities16staticMetaObjectE
quickshell:_ZN2qs7network23NMConnectionStateReason11qt_metacallEN11QMetaObject4CallEiPPv
quickshell:_ZN2qs7network23NMConnectionStateReason11qt_metacastEPKc
quickshell:_ZN2qs7network23NMConnectionStateReason16staticMetaObjectE
quickshell:_ZN2qs7network23NMConnectionStateReason8toStringENS1_4EnumE
quickshell:_ZN2qs7network23clockBootTimeToDateTimeEx
quickshell:_ZN2qs7network23deviceSupportsApCiphersENS0_22NMWirelessCapabilities4EnumENS0_22NM80211ApSecurityFlags4EnumENS0_16WifiSecurityType4EnumE
quickshell:_ZN2qs7network24findBestWirelessSecurityENS0_22NMWirelessCapabilities4EnumEbNS0_14NM80211ApFlags4EnumENS0_22NM80211ApSecurityFlags4EnumES6_
quickshell:_ZN2qs7network30securityFromConnectionSettingsERK4QMapI7QStringS1_IS2_8QVariantEE
quickshell:_ZN2qs7network7Network11qt_metacallEN11QMetaObject4CallEiPPv
quickshell:_ZN2qs7network7Network11qt_metacastEPKc
quickshell:_ZN2qs7network7Network12stateChangedEv
quickshell:_ZN2qs7network7Network16connectedChangedEv
quickshell:_ZN2qs7network7Network16staticMetaObjectE
quickshell:_ZN2qs7network7Network20stateChangingChangedEv
quickshell:_ZN2qs7network7NetworkC1E7QStringP7QObject
quickshell:_ZN2qs7network7NetworkC2E7QStringP7QObject
quickshell:_ZN2qs7network8NMDevice10disconnectEv
quickshell:_ZN2qs7network8NMDevice11qt_metacallEN11QMetaObject4CallEiPPv
quickshell:_ZN2qs7network8NMDevice11qt_metacastEPKc
quickshell:_ZN2qs7network8NMDevice12stateChangedENS0_13NMDeviceState4EnumE
quickshell:_ZN2qs7network8NMDevice14managedChangedEb
quickshell:_ZN2qs7network8NMDevice14setAutoconnectEb
quickshell:_ZN2qs7network8NMDevice16connectionLoadedEPNS0_20NMConnectionSettingsE
quickshell:_ZN2qs7network8NMDevice16hwAddressChangedERK7QString
quickshell:_ZN2qs7network8NMDevice16interfaceChangedERK7QString
quickshell:_ZN2qs7network8NMDevice16staticMetaObjectE
quickshell:_ZN2qs7network8NMDevice17connectionRemovedEPNS0_20NMConnectionSettingsE
quickshell:_ZN2qs7network8NMDevice18activateConnectionERK15QDBusObjectPathS4_
quickshell:_ZN2qs7network8NMDevice18autoconnectChangedEb
quickshell:_ZN2qs7network8NMDevice18registerConnectionERK7QString
quickshell:_ZN2qs7network8NMDevice22activeConnectionLoadedEPNS0_18NMActiveConnectionE
quickshell:_ZN2qs7network8NMDevice24addAndActivateConnectionERK4QMapI7QStringS2_IS3_8QVariantEERK15QDBusObjectPathSB_
quickshell:_ZN2qs7network8NMDevice27activeConnectionPathChangedERK15QDBusObjectPath
quickshell:_ZN2qs7network8NMDevice29onActiveConnectionPathChangedERK15QDBusObjectPath
quickshell:_ZN2qs7network8NMDevice31availableConnectionPathsChangedE5QListI15QDBusObjectPathE
quickshell:_ZN2qs7network8NMDevice33onAvailableConnectionPathsChangedERK5QListI15QDBusObjectPathE
quickshell:_ZN2qs7network8NMDeviceC1ERK7QStringP7QObject
quickshell:_ZN2qs7network8NMDeviceC2ERK7QStringP7QObject
quickshell:_ZN2qs7service13notifications12Notification10setTrackedEb
quickshell:_ZN2qs7service13notifications12Notification11bodyChangedEv
quickshell:_ZN2qs7service13notifications12Notification11qt_metacallEN11QMetaObject4CallEiPPv
quickshell:_ZN2qs7service13notifications12Notification11qt_metacastEPKc
quickshell:_ZN2qs7service13notifications12Notification12hintsChangedEv
quickshell:_ZN2qs7service13notifications12Notification12imageChangedEv
quickshell:_ZN2qs7service13notifications12Notification14actionsChangedEv
quickshell:_ZN2qs7service13notifications12Notification14appIconChangedEv
quickshell:_ZN2qs7service13notifications12Notification14appNameChangedEv
quickshell:_ZN2qs7service13notifications12Notification14summaryChangedEv
quickshell:_ZN2qs7service13notifications12Notification14trackedChangedEv
quickshell:_ZN2qs7service13notifications12Notification14urgencyChangedEv
quickshell:_ZN2qs7service13notifications12Notification15residentChangedEv
quickshell:_ZN2qs7service13notifications12Notification15sendInlineReplyERK7QString
quickshell:_ZN2qs7service13notifications12Notification16staticMetaObjectE
quickshell:_ZN2qs7service13notifications12Notification16transientChangedEv
quickshell:_ZN2qs7service13notifications12Notification16updatePropertiesERK7QStringS3_S5_S5_RK5QListIS3_E4QMapIS3_8QVariantEi
quickshell:_ZN2qs7service13notifications12Notification17setLastGenerationEv
quickshell:_ZN2qs7service13notifications12Notification19desktopEntryChangedEv
quickshell:_ZN2qs7service13notifications12Notification20expireTimeoutChangedEv
quickshell:_ZN2qs7service13notifications12Notification21hasActionIconsChangedEv
quickshell:_ZN2qs7service13notifications12Notification21hasInlineReplyChangedEv
quickshell:_ZN2qs7service13notifications12Notification29inlineReplyPlaceholderChangedEv
quickshell:_ZN2qs7service13notifications12Notification5closeENS1_23NotificationCloseReason4EnumE
quickshell:_ZN2qs7service13notifications12Notification6closedENS1_23NotificationCloseReason4EnumE
quickshell:_ZN2qs7service13notifications12Notification6expireEv
quickshell:_ZN2qs7service13notifications12Notification7dismissEv
quickshell:_ZN2qs7service13notifications16logNotificationsEv
quickshell:_ZN2qs7service13notifications17NotificationImage12requestImageERK7QStringP5QSizeRKS6_
quickshell:_ZN2qs7service13notifications18NotificationAction11qt_metacallEN11QMetaObject4CallEiPPv
quickshell:_ZN2qs7service13notifications18NotificationAction11qt_metacastEPKc
quickshell:_ZN2qs7service13notifications18NotificationAction11textChangedEv
quickshell:_ZN2qs7service13notifications18NotificationAction16staticMetaObjectE
quickshell:_ZN2qs7service13notifications18NotificationAction6invokeEv
quickshell:_ZN2qs7service13notifications18NotificationAction7setTextERK7QString
quickshell:_ZN2qs7service13notifications18NotificationServer11qt_metacallEN11QMetaObject4CallEiPPv
quickshell:_ZN2qs7service13notifications18NotificationServer11qt_metacastEPKc
quickshell:_ZN2qs7service13notifications18NotificationServer11tryRegisterEv
quickshell:_ZN2qs7service13notifications18NotificationServer12notificationEPNS1_12NotificationE
quickshell:_ZN2qs7service13notifications18NotificationServer13ActionInvokedEj7QString
quickshell:_ZN2qs7service13notifications18NotificationServer16staticMetaObjectE
quickshell:_ZN2qs7service13notifications18NotificationServer16switchGenerationEbRKSt8functionIFvvEE
quickshell:_ZN2qs7service13notifications18NotificationServer17CloseNotificationEj
quickshell:_ZN2qs7service13notifications18NotificationServer18NotificationClosedEjj
quickshell:_ZN2qs7service13notifications18NotificationServer18deleteNotificationEPNS1_12NotificationENS1_23NotificationCloseReason4EnumE
quickshell:_ZN2qs7service13notifications18NotificationServer19NotificationRepliedEj7QString
quickshell:_ZN2qs7service13notifications18NotificationServer20GetServerInformationER7QStringS4_S4_
quickshell:_ZN2qs7service13notifications18NotificationServer20trackedNotificationsEv
quickshell:_ZN2qs7service13notifications18NotificationServer21onServiceUnregisteredERK7QString
quickshell:_ZN2qs7service13notifications18NotificationServer6NotifyERK7QStringjS5_S5_S5_RK5QListIS3_ERK4QMapIS3_8QVariantEi
quickshell:_ZN2qs7service13notifications18NotificationServer8instanceEv
quickshell:_ZN2qs7service13notifications18NotificationServerC1Ev
quickshell:_ZN2qs7service13notifications18NotificationServerC2Ev
quickshell:_ZN2qs7service13notifications19NotificationUrgency11qt_metacallEN11QMetaObject4CallEiPPv
quickshell:_ZN2qs7service13notifications19NotificationUrgency11qt_metacastEPKc
quickshell:_ZN2qs7service13notifications19NotificationUrgency16staticMetaObjectE
quickshell:_ZN2qs7service13notifications19NotificationUrgency8toStringENS2_4EnumE
quickshell:_ZN2qs7service13notifications21NotificationServerQml11qt_metacallEN11QMetaObject4CallEiPPv
quickshell:_ZN2qs7service13notifications21NotificationServerQml11qt_metacastEPKc
quickshell:_ZN2qs7service13notifications21NotificationServerQml12notificationEPNS1_12NotificationE
quickshell:_ZN2qs7service13notifications21NotificationServerQml12onPostReloadEv
quickshell:_ZN2qs7service13notifications21NotificationServerQml13setExtraHintsE5QListI7QStringE
quickshell:_ZN2qs7service13notifications21NotificationServerQml15setKeepOnReloadEb
quickshell:_ZN2qs7service13notifications21NotificationServerQml15updateSupportedEv
quickshell:_ZN2qs7service13notifications21NotificationServerQml16setBodySupportedEb
quickshell:_ZN2qs7service13notifications21NotificationServerQml16staticMetaObjectE
quickshell:_ZN2qs7service13notifications21NotificationServerQml17extraHintsChangedEv
quickshell:_ZN2qs7service13notifications21NotificationServerQml17setImageSupportedEb
quickshell:_ZN2qs7service13notifications21NotificationServerQml19keepOnReloadChangedEv
quickshell:_ZN2qs7service13notifications21NotificationServerQml19setActionsSupportedEb
quickshell:_ZN2qs7service13notifications21NotificationServerQml20bodySupportedChangedEv
quickshell:_ZN2qs7service13notifications21NotificationServerQml21imageSupportedChangedEv
quickshell:_ZN2qs7service13notifications21NotificationServerQml22setBodyImagesSupportedEb
quickshell:_ZN2qs7service13notifications21NotificationServerQml22setBodyMarkupSupportedEb
quickshell:_ZN2qs7service13notifications21NotificationServerQml23actionsSupportedChangedEv
quickshell:_ZN2qs7service13notifications21NotificationServerQml23setActionIconsSupportedEb
quickshell:_ZN2qs7service13notifications21NotificationServerQml23setInlineReplySupportedEb
quickshell:_ZN2qs7service13notifications21NotificationServerQml23setPersistenceSupportedEb
quickshell:_ZN2qs7service13notifications21NotificationServerQml26bodyImagesSupportedChangedEv
quickshell:_ZN2qs7service13notifications21NotificationServerQml26bodyMarkupSupportedChangedEv
quickshell:_ZN2qs7service13notifications21NotificationServerQml26setBodyHyperlinksSupportedEb
quickshell:_ZN2qs7service13notifications21NotificationServerQml27actionIconsSupportedChangedEv
quickshell:_ZN2qs7service13notifications21NotificationServerQml27inlineReplySupportedChangedEv
quickshell:_ZN2qs7service13notifications21NotificationServerQml27persistenceSupportedChangedEv
quickshell:_ZN2qs7service13notifications21NotificationServerQml27trackedNotificationsChangedEv
quickshell:_ZN2qs7service13notifications21NotificationServerQml30bodyHyperlinksSupportedChangedEv
quickshell:_ZN2qs7service13notifications23NotificationCloseReason11qt_metacallEN11QMetaObject4CallEiPPv
quickshell:_ZN2qs7service13notifications23NotificationCloseReason11qt_metacastEPKc
quickshell:_ZN2qs7service13notifications23NotificationCloseReason16staticMetaObjectE
quickshell:_ZN2qs7service13notifications23NotificationCloseReason8toStringENS2_4EnumE
quickshell:_ZN2qs7service13notifications8qslogcat16logNotificationsEv
quickshell:_ZN2qs7service13notificationslsER13QDBusArgumentRKNS1_21DBusNotificationImageE
quickshell:_ZN2qs7service13notificationsrsERK13QDBusArgumentRNS1_21DBusNotificationImageE
quickshell:_ZN2qs7service3sni15TrayImageHandle13requestPixmapERK7QStringP5QSizeRKS6_
quickshell:_ZN2qs7service3sni15TrayImageHandleC1EPNS1_18StatusNotifierItemE
quickshell:_ZN2qs7service3sni15TrayImageHandleC2EPNS1_18StatusNotifierItemE
quickshell:_ZN2qs7service3sni18StatusNotifierHost11onItemReadyEv
quickshell:_ZN2qs7service3sni18StatusNotifierHost11qt_metacallEN11QMetaObject4CallEiPPv
quickshell:_ZN2qs7service3sni18StatusNotifierHost11qt_metacastEPKc
quickshell:_ZN2qs7service3sni18StatusNotifierHost14itemRegisteredEPNS1_18StatusNotifierItemE
quickshell:_ZN2qs7service3sni18StatusNotifierHost16connectToWatcherEv
quickshell:_ZN2qs7service3sni18StatusNotifierHost16itemUnregisteredEPNS1_18StatusNotifierItemE
quickshell:_ZN2qs7service3sni18StatusNotifierHost16onItemRegisteredERK7QString
quickshell:_ZN2qs7service3sni18StatusNotifierHost16staticMetaObjectE
quickshell:_ZN2qs7service3sni18StatusNotifierHost18onItemUnregisteredERK7QString
quickshell:_ZN2qs7service3sni18StatusNotifierHost19onWatcherRegisteredEv
quickshell:_ZN2qs7service3sni18StatusNotifierHost21onWatcherUnregisteredEv
quickshell:_ZN2qs7service3sni18StatusNotifierHost8instanceEv
quickshell:_ZN2qs7service3sni18StatusNotifierHost9itemReadyEPNS1_18StatusNotifierItemE
quickshell:_ZN2qs7service3sni18StatusNotifierHostC1EP7QObject
quickshell:_ZN2qs7service3sni18StatusNotifierHostC2EP7QObject
quickshell:_ZN2qs7service3sni18StatusNotifierItem10menuHandleEv
quickshell:_ZN2qs7service3sni18StatusNotifierItem11iconChangedEv
quickshell:_ZN2qs7service3sni18StatusNotifierItem11qt_metacallEN11QMetaObject4CallEiPPv
quickshell:_ZN2qs7service3sni18StatusNotifierItem11qt_metacastEPKc
quickshell:_ZN2qs7service3sni18StatusNotifierItem12titleChangedEv
quickshell:_ZN2qs7service3sni18StatusNotifierItem13statusChangedEv
quickshell:_ZN2qs7service3sni18StatusNotifierItem14hasMenuChangedEv
quickshell:_ZN2qs7service3sni18StatusNotifierItem15categoryChangedEv
quickshell:_ZN2qs7service3sni18StatusNotifierItem15onlyMenuChangedEv
quickshell:_ZN2qs7service3sni18StatusNotifierItem16onGetAllFinishedEv
quickshell:_ZN2qs7service3sni18StatusNotifierItem16staticMetaObjectE
quickshell:_ZN2qs7service3sni18StatusNotifierItem17onMenuPathChangedEv
quickshell:_ZN2qs7service3sni18StatusNotifierItem17secondaryActivateEv
quickshell:_ZN2qs7service3sni18StatusNotifierItem17updatePixmapIndexEv
quickshell:_ZN2qs7service3sni18StatusNotifierItem19tooltipTitleChangedEv
quickshell:_ZN2qs7service3sni18StatusNotifierItem25tooltipDescriptionChangedEv
quickshell:_ZN2qs7service3sni18StatusNotifierItem5readyEv
quickshell:_ZN2qs7service3sni18StatusNotifierItem7displayEP7QObjectii
quickshell:_ZN2qs7service3sni18StatusNotifierItem8activateEv
quickshell:_ZN2qs7service3sni18StatusNotifierItem9idChangedEv
quickshell:_ZN2qs7service3sni18StatusNotifierItemC1ERK7QStringP7QObject
quickshell:_ZN2qs7service3sni18StatusNotifierItemC2ERK7QStringP7QObject
quickshell:_ZN2qs7service3sni21StatusNotifierWatcher11qt_metacallEN11QMetaObject4CallEiPPv
quickshell:_ZN2qs7service3sni21StatusNotifierWatcher11qt_metacastEPKc
quickshell:_ZN2qs7service3sni21StatusNotifierWatcher11tryRegisterEv
quickshell:_ZN2qs7service3sni21StatusNotifierWatcher13qualifiedItemERK7QString
quickshell:_ZN2qs7service3sni21StatusNotifierWatcher16staticMetaObjectE
quickshell:_ZN2qs7service3sni21StatusNotifierWatcher21onServiceUnregisteredERK7QString
quickshell:_ZN2qs7service3sni21StatusNotifierWatcher26RegisterStatusNotifierHostERK7QString
quickshell:_ZN2qs7service3sni21StatusNotifierWatcher26RegisterStatusNotifierItemERK7QString
quickshell:_ZN2qs7service3sni21StatusNotifierWatcher28StatusNotifierHostRegisteredEv
quickshell:_ZN2qs7service3sni21StatusNotifierWatcher28StatusNotifierItemRegisteredERK7QString
quickshell:_ZN2qs7service3sni21StatusNotifierWatcher30StatusNotifierHostUnregisteredEv
quickshell:_ZN2qs7service3sni21StatusNotifierWatcher30StatusNotifierItemUnregisteredERK7QString
quickshell:_ZN2qs7service3sni21StatusNotifierWatcher8instanceEv
quickshell:_ZN2qs7service3sni21StatusNotifierWatcherC1EP7QObject
quickshell:_ZN2qs7service3sni21StatusNotifierWatcherC2EP7QObject
quickshell:_ZN2qs7service3sni6Status16staticMetaObjectE
quickshell:_ZN2qs7service3sni8Category16staticMetaObjectE
quickshell:_ZN2qs7service5mpris11MprisPlayer10setPlayingEb
quickshell:_ZN2qs7service5mpris11MprisPlayer10setShuffleEb
quickshell:_ZN2qs7service5mpris11MprisPlayer11qt_metacallEN11QMetaObject4CallEiPPv
quickshell:_ZN2qs7service5mpris11MprisPlayer11qt_metacastEPKc
quickshell:_ZN2qs7service5mpris11MprisPlayer11rateChangedEv
quickshell:_ZN2qs7service5mpris11MprisPlayer11setPositionEd
quickshell:_ZN2qs7service5mpris11MprisPlayer11setPositionEx
quickshell:_ZN2qs7service5mpris11MprisPlayer12setLoopStateENS1_14MprisLoopState4EnumE
quickshell:_ZN2qs7service5mpris11MprisPlayer12trackChangedEv
quickshell:_ZN2qs7service5mpris11MprisPlayer13lengthChangedEv
quickshell:_ZN2qs7service5mpris11MprisPlayer13setFullscreenEb
quickshell:_ZN2qs7service5mpris11MprisPlayer13togglePlayingEv
quickshell:_ZN2qs7service5mpris11MprisPlayer13volumeChangedEv
quickshell:_ZN2qs7service5mpris11MprisPlayer14canPlayChangedEv
quickshell:_ZN2qs7service5mpris11MprisPlayer14canQuitChangedEv
quickshell:_ZN2qs7service5mpris11MprisPlayer14canSeekChangedEv
quickshell:_ZN2qs7service5mpris11MprisPlayer14maxRateChangedEv
quickshell:_ZN2qs7service5mpris11MprisPlayer14minRateChangedEv
quickshell:_ZN2qs7service5mpris11MprisPlayer14shuffleChangedEv
quickshell:_ZN2qs7service5mpris11MprisPlayer15canPauseChangedEv
quickshell:_ZN2qs7service5mpris11MprisPlayer15canRaiseChangedEv
quickshell:_ZN2qs7service5mpris11MprisPlayer15identityChangedEv
quickshell:_ZN2qs7service5mpris11MprisPlayer15metadataChangedEv
quickshell:_ZN2qs7service5mpris11MprisPlayer15positionChangedEv
quickshell:_ZN2qs7service5mpris11MprisPlayer15uniqueIdChangedEv
quickshell:_ZN2qs7service5mpris11MprisPlayer16canGoNextChangedEv
quickshell:_ZN2qs7service5mpris11MprisPlayer16isPlayingChangedEv
quickshell:_ZN2qs7service5mpris11MprisPlayer16loopStateChangedEv
quickshell:_ZN2qs7service5mpris11MprisPlayer16onGetAllFinishedEv
quickshell:_ZN2qs7service5mpris11MprisPlayer16postTrackChangedEv
quickshell:_ZN2qs7service5mpris11MprisPlayer16setPlaybackStateENS1_18MprisPlaybackState4EnumE
quickshell:_ZN2qs7service5mpris11MprisPlayer16staticMetaObjectE
quickshell:_ZN2qs7service5mpris11MprisPlayer17canControlChangedEv
quickshell:_ZN2qs7service5mpris11MprisPlayer17fullscreenChangedEv
quickshell:_ZN2qs7service5mpris11MprisPlayer17onMetadataChangedEv
quickshell:_ZN2qs7service5mpris11MprisPlayer17onPositionUpdatedEv
quickshell:_ZN2qs7service5mpris11MprisPlayer17trackAlbumChangedEv
quickshell:_ZN2qs7service5mpris11MprisPlayer17trackTitleChangedEv
quickshell:_ZN2qs7service5mpris11MprisPlayer18trackArtUrlChangedEv
quickshell:_ZN2qs7service5mpris11MprisPlayer18trackArtistChangedEv
quickshell:_ZN2qs7service5mpris11MprisPlayer19desktopEntryChangedEv
quickshell:_ZN2qs7service5mpris11MprisPlayer20canGoPreviousChangedEv
quickshell:_ZN2qs7service5mpris11MprisPlayer20loopSupportedChangedEv
quickshell:_ZN2qs7service5mpris11MprisPlayer20playbackStateChangedEv
quickshell:_ZN2qs7service5mpris11MprisPlayer22lengthSupportedChangedEv
quickshell:_ZN2qs7service5mpris11MprisPlayer22volumeSupportedChangedEv
quickshell:_ZN2qs7service5mpris11MprisPlayer23canSetFullscreenChangedEv
quickshell:_ZN2qs7service5mpris11MprisPlayer23canTogglePlayingChangedEv
quickshell:_ZN2qs7service5mpris11MprisPlayer23onPlaybackStatusUpdatedEv
quickshell:_ZN2qs7service5mpris11MprisPlayer23shuffleSupportedChangedEv
quickshell:_ZN2qs7service5mpris11MprisPlayer23trackAlbumArtistChangedEv
quickshell:_ZN2qs7service5mpris11MprisPlayer24positionSupportedChangedEv
quickshell:_ZN2qs7service5mpris11MprisPlayer25onExportedPositionChangedEv
quickshell:_ZN2qs7service5mpris11MprisPlayer25supportedMimeTypesChangedEv
quickshell:_ZN2qs7service5mpris11MprisPlayer26supportedUriSchemesChangedEv
quickshell:_ZN2qs7service5mpris11MprisPlayer4nextEv
quickshell:_ZN2qs7service5mpris11MprisPlayer4playEv
quickshell:_ZN2qs7service5mpris11MprisPlayer4quitEv
quickshell:_ZN2qs7service5mpris11MprisPlayer4seekEd
quickshell:_ZN2qs7service5mpris11MprisPlayer4stopEv
quickshell:_ZN2qs7service5mpris11MprisPlayer5pauseEv
quickshell:_ZN2qs7service5mpris11MprisPlayer5raiseEv
quickshell:_ZN2qs7service5mpris11MprisPlayer5readyEv
quickshell:_ZN2qs7service5mpris11MprisPlayer6onSeekEx
quickshell:_ZN2qs7service5mpris11MprisPlayer7openUriERK7QString
quickshell:_ZN2qs7service5mpris11MprisPlayer7setRateEd
quickshell:_ZN2qs7service5mpris11MprisPlayer8previousEv
quickshell:_ZN2qs7service5mpris11MprisPlayer9setVolumeEd
quickshell:_ZN2qs7service5mpris11MprisPlayerC1ERK7QStringP7QObject
quickshell:_ZN2qs7service5mpris11MprisPlayerC2ERK7QStringP7QObject
quickshell:_ZN2qs7service5mpris12MprisWatcher11qt_metacallEN11QMetaObject4CallEiPPv
quickshell:_ZN2qs7service5mpris12MprisWatcher11qt_metacastEPKc
quickshell:_ZN2qs7service5mpris12MprisWatcher13onPlayerReadyEv
quickshell:_ZN2qs7service5mpris12MprisWatcher14registerPlayerERK7QString
quickshell:_ZN2qs7service5mpris12MprisWatcher16registerExistingEv
quickshell:_ZN2qs7service5mpris12MprisWatcher16staticMetaObjectE
quickshell:_ZN2qs7service5mpris12MprisWatcher17onPlayerDestroyedEP7QObject
quickshell:_ZN2qs7service5mpris12MprisWatcher19onServiceRegisteredERK7QString
quickshell:_ZN2qs7service5mpris12MprisWatcher21onServiceUnregisteredERK7QString
quickshell:_ZN2qs7service5mpris12MprisWatcher7playersEv
quickshell:_ZN2qs7service5mpris12MprisWatcher8instanceEv
quickshell:_ZN2qs7service5mpris12MprisWatcherC1Ev
quickshell:_ZN2qs7service5mpris12MprisWatcherC2Ev
quickshell:_ZN2qs7service5mpris14MprisLoopState11qt_metacallEN11QMetaObject4CallEiPPv
quickshell:_ZN2qs7service5mpris14MprisLoopState11qt_metacastEPKc
quickshell:_ZN2qs7service5mpris14MprisLoopState16staticMetaObjectE
quickshell:_ZN2qs7service5mpris14MprisLoopState8toStringENS2_4EnumE
quickshell:_ZN2qs7service5mpris18MprisPlaybackState11qt_metacallEN11QMetaObject4CallEiPPv
quickshell:_ZN2qs7service5mpris18MprisPlaybackState11qt_metacastEPKc
quickshell:_ZN2qs7service5mpris18MprisPlaybackState16staticMetaObjectE
quickshell:_ZN2qs7service5mpris18MprisPlaybackState8toStringENS2_4EnumE
quickshell:_ZN2qs7service5mpris8MprisQml11qt_metacallEN11QMetaObject4CallEiPPv
quickshell:_ZN2qs7service5mpris8MprisQml11qt_metacastEPKc
quickshell:_ZN2qs7service5mpris8MprisQml16staticMetaObjectE
quickshell:_ZN2qs7service5mpris8MprisQml7playersEv
quickshell:_ZN2qs7service6polkit11AuthRequest6cancelERK7QString
quickshell:_ZN2qs7service6polkit11AuthRequest8completeEv
quickshell:_ZN2qs7service6polkit11PolkitAgent11flowChangedEv
quickshell:_ZN2qs7service6polkit11PolkitAgent11qt_metacallEN11QMetaObject4CallEiPPv
quickshell:_ZN2qs7service6polkit11PolkitAgent11qt_metacastEPKc
quickshell:_ZN2qs7service6polkit11PolkitAgent15isActiveChangedEv
quickshell:_ZN2qs7service6polkit11PolkitAgent16staticMetaObjectE
quickshell:_ZN2qs7service6polkit11PolkitAgent17componentCompleteEv
quickshell:_ZN2qs7service6polkit11PolkitAgent19isRegisteredChangedEv
quickshell:_ZN2qs7service6polkit11PolkitAgent28authenticationRequestStartedEv
quickshell:_ZN2qs7service6polkit11PolkitAgent7setPathERK7QString
quickshell:_ZN2qs7service6polkit11PolkitAgentD0Ev
quickshell:_ZN2qs7service6polkit11PolkitAgentD1Ev
quickshell:_ZN2qs7service6polkit11PolkitAgentD2Ev
quickshell:_ZN2qs7service6polkit15PolkitAgentImpl11qt_metacallEN11QMetaObject4CallEiPPv
quickshell:_ZN2qs7service6polkit15PolkitAgentImpl11qt_metacastEPKc
quickshell:_ZN2qs7service6polkit15PolkitAgentImpl14tryGetOrCreateEPNS1_11PolkitAgentE
quickshell:_ZN2qs7service6polkit15PolkitAgentImpl15onEndOfQmlAgentEPNS1_11PolkitAgentE
quickshell:_ZN2qs7service6polkit15PolkitAgentImpl16registerCompleteEb
quickshell:_ZN2qs7service6polkit15PolkitAgentImpl16staticMetaObjectE
quickshell:_ZN2qs7service6polkit15PolkitAgentImpl17activeFlowChangedEv
quickshell:_ZN2qs7service6polkit15PolkitAgentImpl17cancelAllRequestsERK7QString
quickshell:_ZN2qs7service6polkit15PolkitAgentImpl19isRegisteredChangedEv
quickshell:_ZN2qs7service6polkit15PolkitAgentImpl19tryTakeoverOrCreateEPNS1_11PolkitAgentE
quickshell:_ZN2qs7service6polkit15PolkitAgentImpl20cancelAuthenticationEPNS1_11AuthRequestE
quickshell:_ZN2qs7service6polkit15PolkitAgentImpl22initiateAuthenticationEPNS1_11AuthRequestE
quickshell:_ZN2qs7service6polkit15PolkitAgentImpl27finishAuthenticationRequestEv
quickshell:_ZN2qs7service6polkit15PolkitAgentImpl29activateAuthenticationRequestEv
quickshell:_ZN2qs7service6polkit15PolkitAgentImpl6tryGetEPKNS1_11PolkitAgentE
quickshell:_ZN2qs7service6polkit15PolkitAgentImpl7setPathERK7QString
quickshell:_ZN2qs7service6polkit15PolkitAgentImpl8instanceE
quickshell:_ZN2qs7service6polkit15PolkitAgentImplC1EPNS1_11PolkitAgentE
quickshell:_ZN2qs7service6polkit15PolkitAgentImplC2EPNS1_11PolkitAgentE
quickshell:_ZN2qs7service6polkit15PolkitAgentImplD0Ev
quickshell:_ZN2qs7service6polkit15PolkitAgentImplD1Ev
quickshell:_ZN2qs7service6polkit15PolkitAgentImplD2Ev
quickshell:_ZN2qs7service6polkit7Session11qt_metacallEN11QMetaObject4CallEiPPv
quickshell:_ZN2qs7service6polkit7Session11qt_metacastEPKc
quickshell:_ZN2qs7service6polkit7Session16staticMetaObjectE
quickshell:_ZN2qs7service6polkit7Session6cancelEv
quickshell:_ZN2qs7service6polkit7Session7requestERK7QStringb
quickshell:_ZN2qs7service6polkit7Session7respondERK7QString
quickshell:_ZN2qs7service6polkit7Session8initiateEv
quickshell:_ZN2qs7service6polkit7Session8showInfoERK7QString
quickshell:_ZN2qs7service6polkit7Session9completedEb
quickshell:_ZN2qs7service6polkit7Session9showErrorERK7QString
quickshell:_ZN2qs7service6polkit7SessionC1EP15_PolkitIdentityRK7QStringP7QObject
quickshell:_ZN2qs7service6polkit7SessionC2EP15_PolkitIdentityRK7QStringP7QObject
quickshell:_ZN2qs7service6polkit7SessionD0Ev
quickshell:_ZN2qs7service6polkit7SessionD1Ev
quickshell:_ZN2qs7service6polkit7SessionD2Ev
quickshell:_ZN2qs7service6polkit8AuthFlow11qt_metacallEN11QMetaObject4CallEiPPv
quickshell:_ZN2qs7service6polkit8AuthFlow11qt_metacastEPKc
quickshell:_ZN2qs7service6polkit8AuthFlow12setupSessionEv
quickshell:_ZN2qs7service6polkit8AuthFlow13failedChangedEv
quickshell:_ZN2qs7service6polkit8AuthFlow15cancelFromAgentEv
quickshell:_ZN2qs7service6polkit8AuthFlow16staticMetaObjectE
quickshell:_ZN2qs7service6polkit8AuthFlow18inputPromptChangedEv
quickshell:_ZN2qs7service6polkit8AuthFlow18isCancelledChangedEv
quickshell:_ZN2qs7service6polkit8AuthFlow18isCompletedChangedEv
quickshell:_ZN2qs7service6polkit8AuthFlow19isSuccessfulChangedEv
quickshell:_ZN2qs7service6polkit8AuthFlow19setSelectedIdentityEPNS1_8IdentityE
quickshell:_ZN2qs7service6polkit8AuthFlow20authenticationFailedEv
quickshell:_ZN2qs7service6polkit8AuthFlow22responseVisibleChangedEv
quickshell:_ZN2qs7service6polkit8AuthFlow23authenticationSucceededEv
quickshell:_ZN2qs7service6polkit8AuthFlow23selectedIdentityChangedEv
quickshell:_ZN2qs7service6polkit8AuthFlow25isResponseRequiredChangedEv
quickshell:_ZN2qs7service6polkit8AuthFlow27cancelAuthenticationRequestEv
quickshell:_ZN2qs7service6polkit8AuthFlow27supplementaryIsErrorChangedEv
quickshell:_ZN2qs7service6polkit8AuthFlow27supplementaryMessageChangedEv
quickshell:_ZN2qs7service6polkit8AuthFlow30authenticationRequestCancelledEv
quickshell:_ZN2qs7service6polkit8AuthFlow6submitERK7QString
quickshell:_ZN2qs7service6polkit8AuthFlow7requestERK7QStringb
quickshell:_ZN2qs7service6polkit8AuthFlow8showInfoERK7QString
quickshell:_ZN2qs7service6polkit8AuthFlow9completedEb
quickshell:_ZN2qs7service6polkit8AuthFlow9showErrorERK7QString
quickshell:_ZN2qs7service6polkit8AuthFlowC1EPNS1_11AuthRequestEO5QListIPNS1_8IdentityEEP7QObject
quickshell:_ZN2qs7service6polkit8AuthFlowC2EPNS1_11AuthRequestEO5QListIPNS1_8IdentityEEP7QObject
quickshell:_ZN2qs7service6polkit8AuthFlowD0Ev
quickshell:_ZN2qs7service6polkit8AuthFlowD1Ev
quickshell:_ZN2qs7service6polkit8AuthFlowD2Ev
quickshell:_ZN2qs7service6polkit8Identity11qt_metacallEN11QMetaObject4CallEiPPv
quickshell:_ZN2qs7service6polkit8Identity11qt_metacastEPKc
quickshell:_ZN2qs7service6polkit8Identity16staticMetaObjectE
quickshell:_ZN2qs7service6polkit8Identity18fromPolkitIdentityENS1_10GObjectRefI15_PolkitIdentityEE
quickshell:_ZN2qs7service6polkit8IdentityC1Ej7QStringS3_bNS1_10GObjectRefI15_PolkitIdentityEEP7QObject
quickshell:_ZN2qs7service6polkit8IdentityC2Ej7QStringS3_bNS1_10GObjectRefI15_PolkitIdentityEEP7QObject
quickshell:_ZN2qs7service6upower12PowerProfile11qt_metacallEN11QMetaObject4CallEiPPv
quickshell:_ZN2qs7service6upower12PowerProfile11qt_metacastEPKc
quickshell:_ZN2qs7service6upower12PowerProfile16staticMetaObjectE
quickshell:_ZN2qs7service6upower12PowerProfile8toStringENS2_4EnumE
quickshell:_ZN2qs7service6upower12UPowerDevice11qt_metacallEN11QMetaObject4CallEiPPv
quickshell:_ZN2qs7service6upower12UPowerDevice11qt_metacastEPKc
quickshell:_ZN2qs7service6upower12UPowerDevice11typeChangedEv
quickshell:_ZN2qs7service6upower12UPowerDevice12modelChangedEv
quickshell:_ZN2qs7service6upower12UPowerDevice12readyChangedEv
quickshell:_ZN2qs7service6upower12UPowerDevice12stateChangedEv
quickshell:_ZN2qs7service6upower12UPowerDevice13energyChangedEv
quickshell:_ZN2qs7service6upower12UPowerDevice15iconNameChangedEv
quickshell:_ZN2qs7service6upower12UPowerDevice16isPresentChangedEv
quickshell:_ZN2qs7service6upower12UPowerDevice16onGetAllFinishedEv
quickshell:_ZN2qs7service6upower12UPowerDevice16staticMetaObjectE
quickshell:_ZN2qs7service6upower12UPowerDevice17changeRateChangedEv
quickshell:_ZN2qs7service6upower12UPowerDevice17nativePathChangedEv
quickshell:_ZN2qs7service6upower12UPowerDevice17percentageChangedEv
quickshell:_ZN2qs7service6upower12UPowerDevice17timeToFullChangedEv
quickshell:_ZN2qs7service6upower12UPowerDevice18powerSupplyChangedEv
quickshell:_ZN2qs7service6upower12UPowerDevice18timeToEmptyChangedEv
quickshell:_ZN2qs7service6upower12UPowerDevice21energyCapacityChangedEv
quickshell:_ZN2qs7service6upower12UPowerDevice22healthSupportedChangedEv
quickshell:_ZN2qs7service6upower12UPowerDevice22isLaptopBatteryChangedEv
quickshell:_ZN2qs7service6upower12UPowerDevice23healthPercentageChangedEv
quickshell:_ZN2qs7service6upower12UPowerDevice4initERK7QString
quickshell:_ZN2qs7service6upower12UPowerDeviceC1EP7QObject
quickshell:_ZN2qs7service6upower12UPowerDeviceC2EP7QObject
quickshell:_ZN2qs7service6upower13PowerProfiles10setProfileENS1_12PowerProfile4EnumE
quickshell:_ZN2qs7service6upower13PowerProfiles11qt_metacallEN11QMetaObject4CallEiPPv
quickshell:_ZN2qs7service6upower13PowerProfiles11qt_metacastEPKc
quickshell:_ZN2qs7service6upower13PowerProfiles16staticMetaObjectE
quickshell:_ZN2qs7service6upower13PowerProfiles4initEv
quickshell:_ZN2qs7service6upower13PowerProfiles8instanceEv
quickshell:_ZN2qs7service6upower13PowerProfilesC1Ev
quickshell:_ZN2qs7service6upower13PowerProfilesC2Ev
quickshell:_ZN2qs7service6upower16PowerProfileHold16staticMetaObjectE
quickshell:_ZN2qs7service6upower16PowerProfilesQml11qt_metacallEN11QMetaObject4CallEiPPv
quickshell:_ZN2qs7service6upower16PowerProfilesQml11qt_metacastEPKc
quickshell:_ZN2qs7service6upower16PowerProfilesQml12holdsChangedEv
quickshell:_ZN2qs7service6upower16PowerProfilesQml14profileChangedEv
quickshell:_ZN2qs7service6upower16PowerProfilesQml16staticMetaObjectE
quickshell:_ZN2qs7service6upower16PowerProfilesQml24degradationReasonChangedEv
quickshell:_ZN2qs7service6upower16PowerProfilesQml28hasPerformanceProfileChangedEv
quickshell:_ZN2qs7service6upower16PowerProfilesQmlC1EP7QObject
quickshell:_ZN2qs7service6upower16PowerProfilesQmlC2EP7QObject
quickshell:_ZN2qs7service6upower16UPowerDeviceType11qt_metacallEN11QMetaObject4CallEiPPv
quickshell:_ZN2qs7service6upower16UPowerDeviceType11qt_metacastEPKc
quickshell:_ZN2qs7service6upower16UPowerDeviceType16staticMetaObjectE
quickshell:_ZN2qs7service6upower16UPowerDeviceType8toStringENS2_4EnumE
quickshell:_ZN2qs7service6upower17UPowerDeviceState11qt_metacallEN11QMetaObject4CallEiPPv
quickshell:_ZN2qs7service6upower17UPowerDeviceState11qt_metacastEPKc
quickshell:_ZN2qs7service6upower17UPowerDeviceState16staticMetaObjectE
quickshell:_ZN2qs7service6upower17UPowerDeviceState8toStringENS2_4EnumE
quickshell:_ZN2qs7service6upower28PerformanceDegradationReason11qt_metacallEN11QMetaObject4CallEiPPv
quickshell:_ZN2qs7service6upower28PerformanceDegradationReason11qt_metacastEPKc
quickshell:_ZN2qs7service6upower28PerformanceDegradationReason16staticMetaObjectE
quickshell:_ZN2qs7service6upower28PerformanceDegradationReason8toStringENS2_4EnumE
quickshell:_ZN2qs7service6upower6UPower11qt_metacallEN11QMetaObject4CallEiPPv
quickshell:_ZN2qs7service6upower6UPower11qt_metacastEPKc
quickshell:_ZN2qs7service6upower6UPower13displayDeviceEv
quickshell:_ZN2qs7service6upower6UPower13onDeviceAddedERK15QDBusObjectPath
quickshell:_ZN2qs7service6upower6UPower13onDeviceReadyEv
quickshell:_ZN2qs7service6upower6UPower14registerDeviceERK7QString
quickshell:_ZN2qs7service6upower6UPower15onDeviceRemovedERK15QDBusObjectPath
quickshell:_ZN2qs7service6upower6UPower15registerDevicesEv
quickshell:_ZN2qs7service6upower6UPower16onBatteryChangedEv
quickshell:_ZN2qs7service6upower6UPower16staticMetaObjectE
quickshell:_ZN2qs7service6upower6UPower21registerDisplayDeviceEv
quickshell:_ZN2qs7service6upower6UPower4initEv
quickshell:_ZN2qs7service6upower6UPower7devicesEv
quickshell:_ZN2qs7service6upower6UPower8instanceEv
quickshell:_ZN2qs7service6upower6UPowerC1Ev
quickshell:_ZN2qs7service6upower6UPowerC2Ev
quickshell:_ZN2qs7service6upower9UPowerQml11qt_metacallEN11QMetaObject4CallEiPPv
quickshell:_ZN2qs7service6upower9UPowerQml11qt_metacastEPKc
quickshell:_ZN2qs7service6upower9UPowerQml13displayDeviceEv
quickshell:_ZN2qs7service6upower9UPowerQml16onBatteryChangedEv
quickshell:_ZN2qs7service6upower9UPowerQml16staticMetaObjectE
quickshell:_ZN2qs7service6upower9UPowerQml7devicesEv
quickshell:_ZN2qs7service6upower9UPowerQmlC1EP7QObject
quickshell:_ZN2qs7service6upower9UPowerQmlC2EP7QObject
quickshell:_ZN2qs7service6upowerlsER6QDebugRKNS1_16PowerProfileHoldE
quickshell:_ZN2qs7service8pipewire10PwMetadata10onPropertyEPvjPKcS5_S5_
quickshell:_ZN2qs7service8pipewire10PwMetadata11qt_metacallEN11QMetaObject4CallEiPPv
quickshell:_ZN2qs7service8pipewire10PwMetadata11qt_metacastEPKc
quickshell:_ZN2qs7service8pipewire10PwMetadata11setPropertyEPKcS4_S4_
quickshell:_ZN2qs7service8pipewire10PwMetadata11unbindHooksEv
quickshell:_ZN2qs7service8pipewire10PwMetadata15propertyChangedEPKcS4_S4_
quickshell:_ZN2qs7service8pipewire10PwMetadata16staticMetaObjectE
quickshell:_ZN2qs7service8pipewire10PwMetadata6EVENTSE
quickshell:_ZN2qs7service8pipewire10PwMetadata9bindHooksEv
quickshell:_ZN2qs7service8pipewire10PwMetadata9initPropsEPK8spa_dict
quickshell:_ZN2qs7service8pipewire10PwNodeType11qt_metacallEN11QMetaObject4CallEiPPv
quickshell:_ZN2qs7service8pipewire10PwNodeType11qt_metacastEPKc
quickshell:_ZN2qs7service8pipewire10PwNodeType16staticMetaObjectE
quickshell:_ZN2qs7service8pipewire10PwNodeType8toStringE6QFlagsINS2_4FlagEE
quickshell:_ZN2qs7service8pipewire10PwRegistry10onCoreSyncEji
quickshell:_ZN2qs7service8pipewire10PwRegistry11initializedEv
quickshell:_ZN2qs7service8pipewire10PwRegistry11qt_metacallEN11QMetaObject4CallEiPPv
quickshell:_ZN2qs7service8pipewire10PwRegistry11qt_metacastEPKc
quickshell:_ZN2qs7service8pipewire10PwRegistry13metadataAddedEPNS1_10PwMetadataE
quickshell:_ZN2qs7service8pipewire10PwRegistry14addLinkToGroupEPNS1_6PwLinkE
quickshell:_ZN2qs7service8pipewire10PwRegistry14linkGroupAddedEPNS1_11PwLinkGroupE
quickshell:_ZN2qs7service8pipewire10PwRegistry15onGlobalRemovedEPvj
quickshell:_ZN2qs7service8pipewire10PwRegistry16staticMetaObjectE
quickshell:_ZN2qs7service8pipewire10PwRegistry20onLinkGroupDestroyedEP7QObject
quickshell:_ZN2qs7service8pipewire10PwRegistry4initERNS1_6PwCoreE
quickshell:_ZN2qs7service8pipewire10PwRegistry5resetEv
quickshell:_ZN2qs7service8pipewire10PwRegistry6EVENTSE
quickshell:_ZN2qs7service8pipewire10PwRegistry7clearedEv
quickshell:_ZN2qs7service8pipewire10PwRegistry8onGlobalEPvjjPKcjPK8spa_dict
quickshell:_ZN2qs7service8pipewire10PwRegistry9linkAddedEPNS1_6PwLinkE
quickshell:_ZN2qs7service8pipewire10PwRegistry9nodeAddedEPNS1_6PwNodeE
quickshell:_ZN2qs7service8pipewire11PwLinkGroup10tryAddLinkEPNS1_6PwLinkE
quickshell:_ZN2qs7service8pipewire11PwLinkGroup11qt_metacallEN11QMetaObject4CallEiPPv
quickshell:_ZN2qs7service8pipewire11PwLinkGroup11qt_metacastEPKc
quickshell:_ZN2qs7service8pipewire11PwLinkGroup12stateChangedEv
quickshell:_ZN2qs7service8pipewire11PwLinkGroup13onLinkRemovedEP7QObject
quickshell:_ZN2qs7service8pipewire11PwLinkGroup16staticMetaObjectE
quickshell:_ZN2qs7service8pipewire11PwLinkGroup3refEv
quickshell:_ZN2qs7service8pipewire11PwLinkGroup5unrefEv
quickshell:_ZN2qs7service8pipewire11PwLinkGroupC1EPNS1_6PwLinkEP7QObject
quickshell:_ZN2qs7service8pipewire11PwLinkGroupC2EPNS1_6PwLinkEP7QObject
quickshell:_ZN2qs7service8pipewire11PwLinkIface11qt_metacallEN11QMetaObject4CallEiPPv
quickshell:_ZN2qs7service8pipewire11PwLinkIface11qt_metacastEPKc
quickshell:_ZN2qs7service8pipewire11PwLinkIface12stateChangedEv
quickshell:_ZN2qs7service8pipewire11PwLinkIface16staticMetaObjectE
quickshell:_ZN2qs7service8pipewire11PwLinkIface8instanceEPNS1_6PwLinkE
quickshell:_ZN2qs7service8pipewire11PwLinkIfaceC1EPNS1_6PwLinkE
quickshell:_ZN2qs7service8pipewire11PwLinkIfaceC2EPNS1_6PwLinkE
quickshell:_ZN2qs7service8pipewire11PwLinkState11qt_metacallEN11QMetaObject4CallEiPPv
quickshell:_ZN2qs7service8pipewire11PwLinkState11qt_metacastEPKc
quickshell:_ZN2qs7service8pipewire11PwLinkState16staticMetaObjectE
quickshell:_ZN2qs7service8pipewire11PwLinkState8toStringENS2_4EnumE
quickshell:_ZN2qs7service8pipewire11PwNodeIface11qt_metacallEN11QMetaObject4CallEiPPv
quickshell:_ZN2qs7service8pipewire11PwNodeIface11qt_metacastEPKc
quickshell:_ZN2qs7service8pipewire11PwNodeIface12readyChangedEv
quickshell:_ZN2qs7service8pipewire11PwNodeIface16staticMetaObjectE
quickshell:_ZN2qs7service8pipewire11PwNodeIface17propertiesChangedEv
quickshell:_ZN2qs7service8pipewire11PwNodeIface8instanceEPNS1_6PwNodeE
quickshell:_ZN2qs7service8pipewire11PwNodeIfaceC1EPNS1_6PwNodeE
quickshell:_ZN2qs7service8pipewire11PwNodeIfaceC2EPNS1_6PwNodeE
quickshell:_ZN2qs7service8pipewire11logRegistryEv
quickshell:_ZN2qs7service8pipewire12PwConnection10tryConnectEb
quickshell:_ZN2qs7service8pipewire12PwConnection11qt_metacallEN11QMetaObject4CallEiPPv
quickshell:_ZN2qs7service8pipewire12PwConnection11qt_metacastEPKc
quickshell:_ZN2qs7service8pipewire12PwConnection12onFatalErrorEv
quickshell:_ZN2qs7service8pipewire12PwConnection14beginReconnectEv
quickshell:_ZN2qs7service8pipewire12PwConnection15queueFatalErrorEv
quickshell:_ZN2qs7service8pipewire12PwConnection16staticMetaObjectE
quickshell:_ZN2qs7service8pipewire12PwConnection17resolveRuntimeDirEv
quickshell:_ZN2qs7service8pipewire12PwConnection17stopSocketWatcherEv
quickshell:_ZN2qs7service8pipewire12PwConnection18startSocketWatcherEv
quickshell:_ZN2qs7service8pipewire12PwConnection19onRuntimeDirChangedERK7QString
quickshell:_ZN2qs7service8pipewire12PwConnection8instanceEv
quickshell:_ZN2qs7service8pipewire12PwConnectionC1EP7QObject
quickshell:_ZN2qs7service8pipewire12PwConnectionC2EP7QObject
quickshell:_ZN2qs7service8pipewire12PwPeakStream11resetFormatEv
quickshell:_ZN2qs7service8pipewire12PwPeakStream13handleProcessEv
quickshell:_ZN2qs7service8pipewire12PwPeakStream14onParamChangedEPvjPK7spa_pod
quickshell:_ZN2qs7service8pipewire12PwPeakStream14onStateChangedEPv15pw_stream_stateS4_PKc
quickshell:_ZN2qs7service8pipewire12PwPeakStream18handleParamChangedEjPK7spa_pod
quickshell:_ZN2qs7service8pipewire12PwPeakStream18handleStateChangedE15pw_stream_stateS3_PKc
quickshell:_ZN2qs7service8pipewire12PwPeakStream5startEv
quickshell:_ZN2qs7service8pipewire12PwPeakStream6EVENTSE
quickshell:_ZN2qs7service8pipewire12PwPeakStream7destroyEv
quickshell:_ZN2qs7service8pipewire12PwPeakStream9onDestroyEPv
quickshell:_ZN2qs7service8pipewire12PwPeakStream9onProcessEPv
quickshell:_ZN2qs7service8pipewire13PwObjectIface11qt_metacallEN11QMetaObject4CallEiPPv
quickshell:_ZN2qs7service8pipewire13PwObjectIface11qt_metacastEPKc
quickshell:_ZN2qs7service8pipewire13PwObjectIface16staticMetaObjectE
quickshell:_ZN2qs7service8pipewire13PwObjectIface18onObjectDestroyingEv
quickshell:_ZN2qs7service8pipewire13PwObjectIface3refEv
quickshell:_ZN2qs7service8pipewire13PwObjectIface5unrefEv
quickshell:_ZN2qs7service8pipewire13PwObjectIfaceC1EPNS1_16PwBindableObjectE
quickshell:_ZN2qs7service8pipewire13PwObjectIfaceC2EPNS1_16PwBindableObjectE
quickshell:_ZN2qs7service8pipewire13PwVolumeProps11parseSpaPodEPK7spa_pod
quickshell:_ZN2qs7service8pipewire14PwAudioChannel11qt_metacallEN11QMetaObject4CallEiPPv
quickshell:_ZN2qs7service8pipewire14PwAudioChannel11qt_metacastEPKc
quickshell:_ZN2qs7service8pipewire14PwAudioChannel16staticMetaObjectE
quickshell:_ZN2qs7service8pipewire14PwAudioChannel8toStringENS2_4EnumE
quickshell:_ZN2qs7service8pipewire15PwAudioSpectrum10setEnabledEb
quickshell:_ZN2qs7service8pipewire15PwAudioSpectrum11feedSamplesEPKfi
quickshell:_ZN2qs7service8pipewire15PwAudioSpectrum11idleChangedEv
quickshell:_ZN2qs7service8pipewire15PwAudioSpectrum11nodeChangedEv
quickshell:_ZN2qs7service8pipewire15PwAudioSpectrum11onFrameTickEv
quickshell:_ZN2qs7service8pipewire15PwAudioSpectrum11qt_metacallEN11QMetaObject4CallEiPPv
quickshell:_ZN2qs7service8pipewire15PwAudioSpectrum11qt_metacastEPKc
quickshell:_ZN2qs7service8pipewire15PwAudioSpectrum11setBarCountEi
quickshell:_ZN2qs7service8pipewire15PwAudioSpectrum12processFrameEv
quickshell:_ZN2qs7service8pipewire15PwAudioSpectrum12setFrameRateEi
quickshell:_ZN2qs7service8pipewire15PwAudioSpectrum12setSmoothingEb
quickshell:_ZN2qs7service8pipewire15PwAudioSpectrum13rebuildStreamEv
quickshell:_ZN2qs7service8pipewire15PwAudioSpectrum13valuesChangedEv
quickshell:_ZN2qs7service8pipewire15PwAudioSpectrum14computeBarBinsEv
quickshell:_ZN2qs7service8pipewire15PwAudioSpectrum14enabledChangedEv
quickshell:_ZN2qs7service8pipewire15PwAudioSpectrum14initProcessingEv
quickshell:_ZN2qs7service8pipewire15PwAudioSpectrum14setLowerCutoffEi
quickshell:_ZN2qs7service8pipewire15PwAudioSpectrum14setUpperCutoffEi
quickshell:_ZN2qs7service8pipewire15PwAudioSpectrum15barCountChangedEv
quickshell:_ZN2qs7service8pipewire15PwAudioSpectrum15onNodeDestroyedEv
quickshell:_ZN2qs7service8pipewire15PwAudioSpectrum16frameRateChangedEv
quickshell:_ZN2qs7service8pipewire15PwAudioSpectrum16smoothingChangedEv
quickshell:_ZN2qs7service8pipewire15PwAudioSpectrum16staticMetaObjectE
quickshell:_ZN2qs7service8pipewire15PwAudioSpectrum17setNoiseReductionEd
quickshell:_ZN2qs7service8pipewire15PwAudioSpectrum18lowerCutoffChangedEv
quickshell:_ZN2qs7service8pipewire15PwAudioSpectrum18upperCutoffChangedEv
quickshell:_ZN2qs7service8pipewire15PwAudioSpectrum21noiseReductionChangedEv
quickshell:_ZN2qs7service8pipewire15PwAudioSpectrum7setNodeEPNS1_11PwNodeIfaceE
quickshell:_ZN2qs7service8pipewire15PwAudioSpectrumC1EP7QObject
quickshell:_ZN2qs7service8pipewire15PwAudioSpectrumC2EP7QObject
quickshell:_ZN2qs7service8pipewire15PwAudioSpectrumD0Ev
quickshell:_ZN2qs7service8pipewire15PwAudioSpectrumD1Ev
quickshell:_ZN2qs7service8pipewire15PwAudioSpectrumD2Ev
quickshell:_ZN2qs7service8pipewire15PwObjectTracker10setObjectsERK5QListIP7QObjectE
quickshell:_ZN2qs7service8pipewire15PwObjectTracker11qt_metacallEN11QMetaObject4CallEiPPv
quickshell:_ZN2qs7service8pipewire15PwObjectTracker11qt_metacastEPKc
quickshell:_ZN2qs7service8pipewire15PwObjectTracker14objectsChangedEv
quickshell:_ZN2qs7service8pipewire15PwObjectTracker15objectDestroyedEP7QObject
quickshell:_ZN2qs7service8pipewire15PwObjectTracker16staticMetaObjectE
quickshell:_ZN2qs7service8pipewire15PwObjectTracker9clearListEv
quickshell:_ZN2qs7service8pipewire15PwObjectTrackerD0Ev
quickshell:_ZN2qs7service8pipewire15PwObjectTrackerD1Ev
quickshell:_ZN2qs7service8pipewire15PwObjectTrackerD2Ev
quickshell:_ZN2qs7service8pipewire16PwBindableObject10destroyingEPS2_
quickshell:_ZN2qs7service8pipewire16PwBindableObject11qt_metacallEN11QMetaObject4CallEiPPv
quickshell:_ZN2qs7service8pipewire16PwBindableObject11qt_metacastEPKc
quickshell:_ZN2qs7service8pipewire16PwBindableObject11safeDestroyEv
quickshell:_ZN2qs7service8pipewire16PwBindableObject12registryBindEPKcj
quickshell:_ZN2qs7service8pipewire16PwBindableObject16staticMetaObjectE
quickshell:_ZN2qs7service8pipewire16PwBindableObject3refEv
quickshell:_ZN2qs7service8pipewire16PwBindableObject4bindEv
quickshell:_ZN2qs7service8pipewire16PwBindableObject4initEPNS1_10PwRegistryEjj
quickshell:_ZN2qs7service8pipewire16PwBindableObject5unrefEv
quickshell:_ZN2qs7service8pipewire16PwBindableObject6unbindEv
quickshell:_ZN2qs7service8pipewire16PwBindableObjectD0Ev
quickshell:_ZN2qs7service8pipewire16PwBindableObjectD1Ev
quickshell:_ZN2qs7service8pipewire16PwBindableObjectD2Ev
quickshell:_ZN2qs7service8pipewire16PwDefaultTracker11onNodeAddedEPNS1_6PwNodeE
quickshell:_ZN2qs7service8pipewire16PwDefaultTracker11qt_metacallEN11QMetaObject4CallEiPPv
quickshell:_ZN2qs7service8pipewire16PwDefaultTracker11qt_metacastEPKc
quickshell:_ZN2qs7service8pipewire16PwDefaultTracker14setDefaultSinkEPNS1_6PwNodeE
quickshell:_ZN2qs7service8pipewire16PwDefaultTracker15onMetadataAddedEPNS1_10PwMetadataE
quickshell:_ZN2qs7service8pipewire16PwDefaultTracker16setDefaultSourceEPNS1_6PwNodeE
quickshell:_ZN2qs7service8pipewire16PwDefaultTracker16staticMetaObjectE
quickshell:_ZN2qs7service8pipewire16PwDefaultTracker18defaultSinkChangedEv
quickshell:_ZN2qs7service8pipewire16PwDefaultTracker18onMetadataPropertyEPKcS4_S4_
quickshell:_ZN2qs7service8pipewire16PwDefaultTracker18setDefaultSinkNameERK7QString
quickshell:_ZN2qs7service8pipewire16PwDefaultTracker20changeConfiguredSinkEPNS1_6PwNodeE
quickshell:_ZN2qs7service8pipewire16PwDefaultTracker20defaultSourceChangedEv
quickshell:_ZN2qs7service8pipewire16PwDefaultTracker20setConfiguredDefaultEPKcRK7QString
quickshell:_ZN2qs7service8pipewire16PwDefaultTracker20setDefaultSourceNameERK7QString
quickshell:_ZN2qs7service8pipewire16PwDefaultTracker22changeConfiguredSourceEPNS1_6PwNodeE
quickshell:_ZN2qs7service8pipewire16PwDefaultTracker22defaultSinkNameChangedEv
quickshell:_ZN2qs7service8pipewire16PwDefaultTracker22onDefaultSinkDestroyedEv
quickshell:_ZN2qs7service8pipewire16PwDefaultTracker24changeConfiguredSinkNameERK7QString
quickshell:_ZN2qs7service8pipewire16PwDefaultTracker24defaultSourceNameChangedEv
quickshell:_ZN2qs7service8pipewire16PwDefaultTracker24onDefaultSourceDestroyedEv
quickshell:_ZN2qs7service8pipewire16PwDefaultTracker24setDefaultConfiguredSinkEPNS1_6PwNodeE
quickshell:_ZN2qs7service8pipewire16PwDefaultTracker26changeConfiguredSourceNameERK7QString
quickshell:_ZN2qs7service8pipewire16PwDefaultTracker26setDefaultConfiguredSourceEPNS1_6PwNodeE
quickshell:_ZN2qs7service8pipewire16PwDefaultTracker28defaultConfiguredSinkChangedEv
quickshell:_ZN2qs7service8pipewire16PwDefaultTracker28setDefaultConfiguredSinkNameERK7QString
quickshell:_ZN2qs7service8pipewire16PwDefaultTracker30defaultConfiguredSourceChangedEv
quickshell:_ZN2qs7service8pipewire16PwDefaultTracker30setDefaultConfiguredSourceNameERK7QString
quickshell:_ZN2qs7service8pipewire16PwDefaultTracker32defaultConfiguredSinkNameChangedEv
quickshell:_ZN2qs7service8pipewire16PwDefaultTracker32onDefaultConfiguredSinkDestroyedEv
quickshell:_ZN2qs7service8pipewire16PwDefaultTracker34defaultConfiguredSourceNameChangedEv
quickshell:_ZN2qs7service8pipewire16PwDefaultTracker34onDefaultConfiguredSourceDestroyedEv
quickshell:_ZN2qs7service8pipewire16PwDefaultTracker5resetEv
quickshell:_ZN2qs7service8pipewire16PwDefaultTrackerC1EPNS1_10PwRegistryE
quickshell:_ZN2qs7service8pipewire16PwDefaultTrackerC2EPNS1_10PwRegistryE
quickshell:_ZN2qs7service8pipewire16PwLinkGroupIface11qt_metacallEN11QMetaObject4CallEiPPv
quickshell:_ZN2qs7service8pipewire16PwLinkGroupIface11qt_metacastEPKc
quickshell:_ZN2qs7service8pipewire16PwLinkGroupIface12stateChangedEv
quickshell:_ZN2qs7service8pipewire16PwLinkGroupIface16staticMetaObjectE
quickshell:_ZN2qs7service8pipewire16PwLinkGroupIface3refEv
quickshell:_ZN2qs7service8pipewire16PwLinkGroupIface5unrefEv
quickshell:_ZN2qs7service8pipewire16PwLinkGroupIface8instanceEPNS1_11PwLinkGroupE
quickshell:_ZN2qs7service8pipewire16PwLinkGroupIfaceC1EPNS1_11PwLinkGroupE
quickshell:_ZN2qs7service8pipewire16PwLinkGroupIfaceC2EPNS1_11PwLinkGroupE
quickshell:_ZN2qs7service8pipewire16PwNodeAudioIface10setVolumesERK5QListIfE
quickshell:_ZN2qs7service8pipewire16PwNodeAudioIface11qt_metacallEN11QMetaObject4CallEiPPv
quickshell:_ZN2qs7service8pipewire16PwNodeAudioIface11qt_metacastEPKc
quickshell:_ZN2qs7service8pipewire16PwNodeAudioIface12mutedChangedEv
quickshell:_ZN2qs7service8pipewire16PwNodeAudioIface14volumesChangedEv
quickshell:_ZN2qs7service8pipewire16PwNodeAudioIface15channelsChangedEv
quickshell:_ZN2qs7service8pipewire16PwNodeAudioIface16setAverageVolumeEf
quickshell:_ZN2qs7service8pipewire16PwNodeAudioIface16staticMetaObjectE
quickshell:_ZN2qs7service8pipewire16PwNodeAudioIface8setMutedEb
quickshell:_ZN2qs7service8pipewire16PwNodeAudioIfaceC1EPNS1_16PwNodeBoundAudioEP7QObject
quickshell:_ZN2qs7service8pipewire16PwNodeAudioIfaceC2EPNS1_16PwNodeBoundAudioEP7QObject
quickshell:_ZN2qs7service8pipewire16PwNodeBoundAudio10onSpaParamEjjPK7spa_pod
quickshell:_ZN2qs7service8pipewire16PwNodeBoundAudio10setVolumesERK5QListIfE
quickshell:_ZN2qs7service8pipewire16PwNodeBoundAudio11qt_metacallEN11QMetaObject4CallEiPPv
quickshell:_ZN2qs7service8pipewire16PwNodeBoundAudio11qt_metacastEPKc
quickshell:_ZN2qs7service8pipewire16PwNodeBoundAudio12mutedChangedEv
quickshell:_ZN2qs7service8pipewire16PwNodeBoundAudio13onDeviceReadyEv
quickshell:_ZN2qs7service8pipewire16PwNodeBoundAudio14volumesChangedEv
quickshell:_ZN2qs7service8pipewire16PwNodeBoundAudio15channelsChangedEv
quickshell:_ZN2qs7service8pipewire16PwNodeBoundAudio15onDeviceChangedEv
quickshell:_ZN2qs7service8pipewire16PwNodeBoundAudio16setAverageVolumeEf
quickshell:_ZN2qs7service8pipewire16PwNodeBoundAudio16staticMetaObjectE
quickshell:_ZN2qs7service8pipewire16PwNodeBoundAudio17updateVolumePropsERKNS1_13PwVolumePropsE
quickshell:_ZN2qs7service8pipewire16PwNodeBoundAudio22onDeviceVolumesChangedEiRKNS1_13PwVolumePropsE
quickshell:_ZN2qs7service8pipewire16PwNodeBoundAudio6onInfoEPK12pw_node_info
quickshell:_ZN2qs7service8pipewire16PwNodeBoundAudio8onUnbindEv
quickshell:_ZN2qs7service8pipewire16PwNodeBoundAudio8setMutedEb
quickshell:_ZN2qs7service8pipewire16PwNodeBoundAudioC1EPNS1_6PwNodeE
quickshell:_ZN2qs7service8pipewire16PwNodeBoundAudioC2EPNS1_6PwNodeE
quickshell:_ZN2qs7service8pipewire16PwSpectrumStream13handleProcessEv
quickshell:_ZN2qs7service8pipewire16PwSpectrumStream14onParamChangedEPvjPK7spa_pod
quickshell:_ZN2qs7service8pipewire16PwSpectrumStream14onStateChangedEPv15pw_stream_stateS4_PKc
quickshell:_ZN2qs7service8pipewire16PwSpectrumStream18handleParamChangedEjPK7spa_pod
quickshell:_ZN2qs7service8pipewire16PwSpectrumStream5startEv
quickshell:_ZN2qs7service8pipewire16PwSpectrumStream6EVENTSE
quickshell:_ZN2qs7service8pipewire16PwSpectrumStream7destroyEv
quickshell:_ZN2qs7service8pipewire16PwSpectrumStream9onDestroyEPv
quickshell:_ZN2qs7service8pipewire16PwSpectrumStream9onProcessEPv
quickshell:_ZN2qs7service8pipewire17PwNodeLinkTracker10linkGroupsEv
quickshell:_ZN2qs7service8pipewire17PwNodeLinkTracker11linkGroupAtEP16QQmlListPropertyINS1_16PwLinkGroupIfaceEEx
quickshell:_ZN2qs7service8pipewire17PwNodeLinkTracker11nodeChangedEv
quickshell:_ZN2qs7service8pipewire17PwNodeLinkTracker11qt_metacallEN11QMetaObject4CallEiPPv
quickshell:_ZN2qs7service8pipewire17PwNodeLinkTracker11qt_metacastEPKc
quickshell:_ZN2qs7service8pipewire17PwNodeLinkTracker11updateLinksEv
quickshell:_ZN2qs7service8pipewire17PwNodeLinkTracker15linkGroupsCountEP16QQmlListPropertyINS1_16PwLinkGroupIfaceEE
quickshell:_ZN2qs7service8pipewire17PwNodeLinkTracker15onNodeDestroyedEv
quickshell:_ZN2qs7service8pipewire17PwNodeLinkTracker16staticMetaObjectE
quickshell:_ZN2qs7service8pipewire17PwNodeLinkTracker17linkGroupsChangedEv
quickshell:_ZN2qs7service8pipewire17PwNodeLinkTracker18onLinkGroupCreatedEPNS1_11PwLinkGroupE
quickshell:_ZN2qs7service8pipewire17PwNodeLinkTracker20onLinkGroupDestroyedEP7QObject
quickshell:_ZN2qs7service8pipewire17PwNodeLinkTracker7setNodeEPNS1_11PwNodeIfaceE
quickshell:_ZN2qs7service8pipewire17PwNodePeakMonitor10clearPeaksEv
quickshell:_ZN2qs7service8pipewire17PwNodePeakMonitor10setEnabledEb
quickshell:_ZN2qs7service8pipewire17PwNodePeakMonitor11nodeChangedEv
quickshell:_ZN2qs7service8pipewire17PwNodePeakMonitor11peakChangedEv
quickshell:_ZN2qs7service8pipewire17PwNodePeakMonitor11qt_metacallEN11QMetaObject4CallEiPPv
quickshell:_ZN2qs7service8pipewire17PwNodePeakMonitor11qt_metacastEPKc
quickshell:_ZN2qs7service8pipewire17PwNodePeakMonitor11updatePeaksERK5QListIfEf
quickshell:_ZN2qs7service8pipewire17PwNodePeakMonitor12peaksChangedEv
quickshell:_ZN2qs7service8pipewire17PwNodePeakMonitor13rebuildStreamEv
quickshell:_ZN2qs7service8pipewire17PwNodePeakMonitor14enabledChangedEv
quickshell:_ZN2qs7service8pipewire17PwNodePeakMonitor14updateChannelsERK5QListINS1_14PwAudioChannel4EnumEE
quickshell:_ZN2qs7service8pipewire17PwNodePeakMonitor15channelsChangedEv
quickshell:_ZN2qs7service8pipewire17PwNodePeakMonitor15onNodeDestroyedEv
quickshell:_ZN2qs7service8pipewire17PwNodePeakMonitor16staticMetaObjectE
quickshell:_ZN2qs7service8pipewire17PwNodePeakMonitor7setNodeEPNS1_11PwNodeIfaceE
quickshell:_ZN2qs7service8pipewire17PwNodePeakMonitorC1EP7QObject
quickshell:_ZN2qs7service8pipewire17PwNodePeakMonitorC2EP7QObject
quickshell:_ZN2qs7service8pipewire17PwNodePeakMonitorD0Ev
quickshell:_ZN2qs7service8pipewire17PwNodePeakMonitorD1Ev
quickshell:_ZN2qs7service8pipewire17PwNodePeakMonitorD2Ev
quickshell:_ZN2qs7service8pipewire19PwBindableObjectRef11qt_metacallEN11QMetaObject4CallEiPPv
quickshell:_ZN2qs7service8pipewire19PwBindableObjectRef11qt_metacastEPKc
quickshell:_ZN2qs7service8pipewire19PwBindableObjectRef15objectDestroyedEv
quickshell:_ZN2qs7service8pipewire19PwBindableObjectRef16staticMetaObjectE
quickshell:_ZN2qs7service8pipewire19PwBindableObjectRef17onObjectDestroyedEv
quickshell:_ZN2qs7service8pipewire19PwBindableObjectRef9setObjectEPNS1_16PwBindableObjectE
quickshell:_ZN2qs7service8pipewire19PwBindableObjectRefC1EPNS1_16PwBindableObjectE
quickshell:_ZN2qs7service8pipewire19PwBindableObjectRefC2EPNS1_16PwBindableObjectE
quickshell:_ZN2qs7service8pipewire19PwBindableObjectRefD0Ev
quickshell:_ZN2qs7service8pipewire19PwBindableObjectRefD1Ev
quickshell:_ZN2qs7service8pipewire19PwBindableObjectRefD2Ev
quickshell:_ZN2qs7service8pipewire6PwCore10fatalErrorEv
quickshell:_ZN2qs7service8pipewire6PwCore11qt_metacallEN11QMetaObject4CallEiPPv
quickshell:_ZN2qs7service8pipewire6PwCore11qt_metacastEPKc
quickshell:_ZN2qs7service8pipewire6PwCore16staticMetaObjectE
quickshell:_ZN2qs7service8pipewire6PwCore4pollEv
quickshell:_ZN2qs7service8pipewire6PwCore5startEb
quickshell:_ZN2qs7service8pipewire6PwCore6EVENTSE
quickshell:_ZN2qs7service8pipewire6PwCore6onSyncEPvji
quickshell:_ZN2qs7service8pipewire6PwCore6polledEv
quickshell:_ZN2qs7service8pipewire6PwCore6syncedEji
quickshell:_ZN2qs7service8pipewire6PwCore7onErrorEPvjiiPKc
quickshell:_ZN2qs7service8pipewire6PwCore8shutdownEv
quickshell:_ZN2qs7service8pipewire6PwCoreC1EP7QObject
quickshell:_ZN2qs7service8pipewire6PwCoreC2EP7QObject
quickshell:_ZN2qs7service8pipewire6PwCoreD0Ev
quickshell:_ZN2qs7service8pipewire6PwCoreD1Ev
quickshell:_ZN2qs7service8pipewire6PwCoreD2Ev
quickshell:_ZN2qs7service8pipewire6PwLink11qt_metacallEN11QMetaObject4CallEiPPv
quickshell:_ZN2qs7service8pipewire6PwLink11qt_metacastEPKc
quickshell:_ZN2qs7service8pipewire6PwLink11unbindHooksEv
quickshell:_ZN2qs7service8pipewire6PwLink12setInputNodeEj
quickshell:_ZN2qs7service8pipewire6PwLink12stateChangedEv
quickshell:_ZN2qs7service8pipewire6PwLink13setOutputNodeEj
quickshell:_ZN2qs7service8pipewire6PwLink16staticMetaObjectE
quickshell:_ZN2qs7service8pipewire6PwLink6EVENTSE
quickshell:_ZN2qs7service8pipewire6PwLink6onInfoEPvPK12pw_link_info
quickshell:_ZN2qs7service8pipewire6PwLink8setStateE13pw_link_state
quickshell:_ZN2qs7service8pipewire6PwLink9bindHooksEv
quickshell:_ZN2qs7service8pipewire6PwLink9initPropsEPK8spa_dict
quickshell:_ZN2qs7service8pipewire6PwNode10onCoreSyncEji
quickshell:_ZN2qs7service8pipewire6PwNode11qt_metacallEN11QMetaObject4CallEiPPv
quickshell:_ZN2qs7service8pipewire6PwNode11qt_metacastEPKc
quickshell:_ZN2qs7service8pipewire6PwNode11unbindHooksEv
quickshell:_ZN2qs7service8pipewire6PwNode12readyChangedEv
quickshell:_ZN2qs7service8pipewire6PwNode16staticMetaObjectE
quickshell:_ZN2qs7service8pipewire6PwNode17propertiesChangedEv
quickshell:_ZN2qs7service8pipewire6PwNode6EVENTSE
quickshell:_ZN2qs7service8pipewire6PwNode6onInfoEPvPK12pw_node_info
quickshell:_ZN2qs7service8pipewire6PwNode7onParamEPvijjjPK7spa_pod
quickshell:_ZN2qs7service8pipewire6PwNode9bindHooksEv
quickshell:_ZN2qs7service8pipewire6PwNode9initPropsEPK8spa_dict
quickshell:_ZN2qs7service8pipewire7SpaHook6removeEv
quickshell:_ZN2qs7service8pipewire7SpaHookC1Ev
quickshell:_ZN2qs7service8pipewire7SpaHookC2Ev
quickshell:_ZN2qs7service8pipewire8Pipewire10linkGroupsEv
quickshell:_ZN2qs7service8pipewire8Pipewire11onLinkAddedEPNS1_6PwLinkE
quickshell:_ZN2qs7service8pipewire8Pipewire11onNodeAddedEPNS1_6PwNodeE
quickshell:_ZN2qs7service8pipewire8Pipewire11qt_metacallEN11QMetaObject4CallEiPPv
quickshell:_ZN2qs7service8pipewire8Pipewire11qt_metacastEPKc
quickshell:_ZN2qs7service8pipewire8Pipewire12readyChangedEv
quickshell:_ZN2qs7service8pipewire8Pipewire13onLinkRemovedEP7QObject
quickshell:_ZN2qs7service8pipewire8Pipewire13onNodeRemovedEP7QObject
quickshell:_ZN2qs7service8pipewire8Pipewire16onLinkGroupAddedEPNS1_11PwLinkGroupE
quickshell:_ZN2qs7service8pipewire8Pipewire16staticMetaObjectE
quickshell:_ZN2qs7service8pipewire8Pipewire18onLinkGroupRemovedEP7QObject
quickshell:_ZN2qs7service8pipewire8Pipewire23defaultAudioSinkChangedEv
quickshell:_ZN2qs7service8pipewire8Pipewire25defaultAudioSourceChangedEv
quickshell:_ZN2qs7service8pipewire8Pipewire29setDefaultConfiguredAudioSinkEPNS1_11PwNodeIfaceE
quickshell:_ZN2qs7service8pipewire8Pipewire31setDefaultConfiguredAudioSourceEPNS1_11PwNodeIfaceE
quickshell:_ZN2qs7service8pipewire8Pipewire33defaultConfiguredAudioSinkChangedEv
quickshell:_ZN2qs7service8pipewire8Pipewire35defaultConfiguredAudioSourceChangedEv
quickshell:_ZN2qs7service8pipewire8Pipewire5linksEv
quickshell:_ZN2qs7service8pipewire8Pipewire5nodesEv
quickshell:_ZN2qs7service8pipewire8Pipewire7isReadyEv
quickshell:_ZN2qs7service8pipewire8PipewireC1EP7QObject
quickshell:_ZN2qs7service8pipewire8PipewireC2EP7QObject
quickshell:_ZN2qs7service8pipewire8PwDevice10setVolumesEiRK5QListIfE
quickshell:_ZN2qs7service8pipewire8PwDevice11deviceReadyEv
quickshell:_ZN2qs7service8pipewire8PwDevice11qt_metacallEN11QMetaObject4CallEiPPv
quickshell:_ZN2qs7service8pipewire8PwDevice11qt_metacastEPKc
quickshell:_ZN2qs7service8pipewire8PwDevice11unbindHooksEv
quickshell:_ZN2qs7service8pipewire8PwDevice13setRoutePropsEiRKSt8functionIFPvP15spa_pod_builderEE
quickshell:_ZN2qs7service8pipewire8PwDevice13waitForDeviceEv
quickshell:_ZN2qs7service8pipewire8PwDevice16staticMetaObjectE
quickshell:_ZN2qs7service8pipewire8PwDevice18tryLoadVolumePropsEiRNS1_13PwVolumePropsE
quickshell:_ZN2qs7service8pipewire8PwDevice19addDeviceIndexPairsEPK7spa_pod
quickshell:_ZN2qs7service8pipewire8PwDevice19routeVolumesChangedEiRKNS1_13PwVolumePropsE
quickshell:_ZN2qs7service8pipewire8PwDevice6EVENTSE
quickshell:_ZN2qs7service8pipewire8PwDevice6onInfoEPvPK14pw_device_info
quickshell:_ZN2qs7service8pipewire8PwDevice6polledEv
quickshell:_ZN2qs7service8pipewire8PwDevice7onParamEPvijjjPK7spa_pod
quickshell:_ZN2qs7service8pipewire8PwDevice8setMutedEib
quickshell:_ZN2qs7service8pipewire8PwDevice9bindHooksEv
quickshell:_ZN2qs7service8pipewire8qslogcat11logRegistryEv
quickshell:_ZN2qs7service8pipewirelsE6QDebugPKNS1_16PwBindableObjectE
quickshell:_ZN2qs7service8pipewirelsE6QDebugPKNS1_6PwLinkE
quickshell:_ZN2qs7wayland10layershell12LayerSurface11attachPopupEPN15QtWaylandClient20QWaylandShellSurfaceE
quickshell:_ZN2qs7wayland10layershell12LayerSurface14applyConfigureEv
quickshell:_ZN2qs7wayland10layershell12LayerSurface28zwlr_layer_surface_v1_closedEv
quickshell:_ZN2qs7wayland10layershell12LayerSurface31zwlr_layer_surface_v1_configureEjjj
quickshell:_ZN2qs7wayland10layershell12LayerSurface6commitEv
quickshell:_ZN2qs7wayland10layershell12LayerSurface7qwindowEv
quickshell:_ZN2qs7wayland10layershell12LayerSurfaceC1EPNS1_21LayerShellIntegrationEPN15QtWaylandClient14QWaylandWindowE
quickshell:_ZN2qs7wayland10layershell12LayerSurfaceC2EPNS1_21LayerShellIntegrationEPN15QtWaylandClient14QWaylandWindowE
quickshell:_ZN2qs7wayland10layershell12LayerSurfaceD0Ev
quickshell:_ZN2qs7wayland10layershell12LayerSurfaceD1Ev
quickshell:_ZN2qs7wayland10layershell12LayerSurfaceD2Ev
quickshell:_ZN2qs7wayland10layershell13WlrLayershell10onPolishedEv
quickshell:_ZN2qs7wayland10layershell13WlrLayershell11qt_metacallEN11QMetaObject4CallEiPPv
quickshell:_ZN2qs7wayland10layershell13WlrLayershell11qt_metacastEPKc
quickshell:_ZN2qs7wayland10layershell13WlrLayershell11trySetWidthEi
quickshell:_ZN2qs7wayland10layershell13WlrLayershell12disownWindowEb
quickshell:_ZN2qs7wayland10layershell13WlrLayershell12layerChangedEv
quickshell:_ZN2qs7wayland10layershell13WlrLayershell12setFocusableEb
quickshell:_ZN2qs7wayland10layershell13WlrLayershell12trySetHeightEi
quickshell:_ZN2qs7wayland10layershell13WlrLayershell13connectBridgeEPNS1_18LayerSurfaceBridgeE
quickshell:_ZN2qs7wayland10layershell13WlrLayershell13connectWindowEv
quickshell:_ZN2qs7wayland10layershell13WlrLayershell14anchorsChangedEv
quickshell:_ZN2qs7wayland10layershell13WlrLayershell14marginsChangedEv
quickshell:_ZN2qs7wayland10layershell13WlrLayershell14onStateChangedEv
quickshell:_ZN2qs7wayland10layershell13WlrLayershell14retrieveWindowEP7QObject
quickshell:_ZN2qs7wayland10layershell13WlrLayershell15setAboveWindowsEb
quickshell:_ZN2qs7wayland10layershell13WlrLayershell16namespaceChangedEv
quickshell:_ZN2qs7wayland10layershell13WlrLayershell16staticMetaObjectE
quickshell:_ZN2qs7wayland10layershell13WlrLayershell17onBridgeDestroyedEv
quickshell:_ZN2qs7wayland10layershell13WlrLayershell18createQQuickWindowEv
quickshell:_ZN2qs7wayland10layershell13WlrLayershell19updateAutoExclusionEv
quickshell:_ZN2qs7wayland10layershell13WlrLayershell20exclusionModeChangedEv
quickshell:_ZN2qs7wayland10layershell13WlrLayershell20exclusiveZoneChangedEv
quickshell:_ZN2qs7wayland10layershell13WlrLayershell20keyboardFocusChangedEv
quickshell:_ZN2qs7wayland10layershell13WlrLayershell21qmlAttachedPropertiesEP7QObject
quickshell:_ZN2qs7wayland10layershell13WlrLayershell9setScreenEP20QuickshellScreenInfo
quickshell:_ZN2qs7wayland10layershell13WlrLayershellC1EP7QObject
quickshell:_ZN2qs7wayland10layershell13WlrLayershellC2EP7QObject
quickshell:_ZN2qs7wayland10layershell16WlrKeyboardFocus16staticMetaObjectE
quickshell:_ZN2qs7wayland10layershell18LayerSurfaceBridge11commitStateEv
quickshell:_ZN2qs7wayland10layershell18LayerSurfaceBridge3getEP7QWindow
quickshell:_ZN2qs7wayland10layershell18LayerSurfaceBridge4initEP7QWindowNS1_17LayerSurfaceStateE
quickshell:_ZN2qs7wayland10layershell21LayerShellIntegration18createShellSurfaceEPN15QtWaylandClient14QWaylandWindowE
quickshell:_ZN2qs7wayland10layershell21LayerShellIntegrationC1Ev
quickshell:_ZN2qs7wayland10layershell21LayerShellIntegrationC2Ev
quickshell:_ZN2qs7wayland10layershell21LayerShellIntegrationD0Ev
quickshell:_ZN2qs7wayland10layershell21LayerShellIntegrationD1Ev
quickshell:_ZN2qs7wayland10layershell21LayerShellIntegrationD2Ev
quickshell:_ZN2qs7wayland10layershell21WaylandPanelInterface10setAnchorsE7Anchors
quickshell:_ZN2qs7wayland10layershell21WaylandPanelInterface10setMarginsE7Margins
quickshell:_ZN2qs7wayland10layershell21WaylandPanelInterface11qt_metacallEN11QMetaObject4CallEiPPv
quickshell:_ZN2qs7wayland10layershell21WaylandPanelInterface11qt_metacastEPKc
quickshell:_ZN2qs7wayland10layershell21WaylandPanelInterface12setFocusableEb
quickshell:_ZN2qs7wayland10layershell21WaylandPanelInterface15setAboveWindowsEb
quickshell:_ZN2qs7wayland10layershell21WaylandPanelInterface16setExclusionModeEN13ExclusionMode4EnumE
quickshell:_ZN2qs7wayland10layershell21WaylandPanelInterface16setExclusiveZoneEi
quickshell:_ZN2qs7wayland10layershell21WaylandPanelInterface16staticMetaObjectE
quickshell:_ZN2qs7wayland10layershell21WaylandPanelInterface8onReloadEP7QObject
quickshell:_ZN2qs7wayland10layershell21WaylandPanelInterfaceC1EP7QObject
quickshell:_ZN2qs7wayland10layershell21WaylandPanelInterfaceC2EP7QObject
quickshell:_ZN2qs7wayland10layershell8WlrLayer16staticMetaObjectE
quickshell:_ZN2qs7wayland10screencopy14ScreencopyView11liveChangedEv
quickshell:_ZN2qs7wayland10screencopy14ScreencopyView11qt_metacallEN11QMetaObject4CallEiPPv
quickshell:_ZN2qs7wayland10screencopy14ScreencopyView11qt_metacastEPKc
quickshell:_ZN2qs7wayland10screencopy14ScreencopyView12captureFrameEv
quickshell:_ZN2qs7wayland10screencopy14ScreencopyView13createContextEv
quickshell:_ZN2qs7wayland10screencopy14ScreencopyView14destroyContextEb
quickshell:_ZN2qs7wayland10screencopy14ScreencopyView14onBuffersReadyEv
quickshell:_ZN2qs7wayland10screencopy14ScreencopyView15onFrameCapturedEv
quickshell:_ZN2qs7wayland10screencopy14ScreencopyView15setPaintCursorsEb
quickshell:_ZN2qs7wayland10screencopy14ScreencopyView15updatePaintNodeEP7QSGNodePN10QQuickItem19UpdatePaintNodeDataE
quickshell:_ZN2qs7wayland10screencopy14ScreencopyView16setCaptureSourceEP7QObject
quickshell:_ZN2qs7wayland10screencopy14ScreencopyView16staticMetaObjectE
quickshell:_ZN2qs7wayland10screencopy14ScreencopyView17componentCompleteEv
quickshell:_ZN2qs7wayland10screencopy14ScreencopyView17hasContentChangedEv
quickshell:_ZN2qs7wayland10screencopy14ScreencopyView17sourceSizeChangedEv
quickshell:_ZN2qs7wayland10screencopy14ScreencopyView18updateImplicitSizeEv
quickshell:_ZN2qs7wayland10screencopy14ScreencopyView19paintCursorsChangedEv
quickshell:_ZN2qs7wayland10screencopy14ScreencopyView20captureSourceChangedEv
quickshell:_ZN2qs7wayland10screencopy14ScreencopyView21constraintSizeChangedEv
quickshell:_ZN2qs7wayland10screencopy14ScreencopyView24onCaptureSourceDestroyedEv
quickshell:_ZN2qs7wayland10screencopy14ScreencopyView7setLiveEb
quickshell:_ZN2qs7wayland10screencopy14ScreencopyView7stoppedEv
quickshell:_ZN2qs7wayland10screencopy14ScreencopyViewC1EP10QQuickItem
quickshell:_ZN2qs7wayland10screencopy14ScreencopyViewC2EP10QQuickItem
quickshell:_ZN2qs7wayland10screencopy17ScreencopyContext11qt_metacallEN11QMetaObject4CallEiPPv
quickshell:_ZN2qs7wayland10screencopy17ScreencopyContext11qt_metacastEPKc
quickshell:_ZN2qs7wayland10screencopy17ScreencopyContext13frameCapturedEv
quickshell:_ZN2qs7wayland10screencopy17ScreencopyContext16staticMetaObjectE
quickshell:_ZN2qs7wayland10screencopy17ScreencopyContext7stoppedEv
quickshell:_ZN2qs7wayland10screencopy17ScreencopyManager13createContextEP7QObjectb
quickshell:_ZN2qs7wayland10screencopy3icc10IccManager13createSessionEP27ext_image_capture_source_v1b
quickshell:_ZN2qs7wayland10screencopy3icc10IccManager8instanceEv
quickshell:_ZN2qs7wayland10screencopy3icc10IccManagerC1Ev
quickshell:_ZN2qs7wayland10screencopy3icc10IccManagerC2Ev
quickshell:_ZN2qs7wayland10screencopy3icc20IccScreencopyContext12captureFrameEv
quickshell:_ZN2qs7wayland10screencopy3icc20IccScreencopyContext13clearOldStateEv
quickshell:_ZN2qs7wayland10screencopy3icc20IccScreencopyContext37ext_image_copy_capture_frame_v1_readyEv
quickshell:_ZN2qs7wayland10screencopy3icc20IccScreencopyContext38ext_image_copy_capture_frame_v1_damageEiiii
quickshell:_ZN2qs7wayland10screencopy3icc20IccScreencopyContext38ext_image_copy_capture_frame_v1_failedEj
quickshell:_ZN2qs7wayland10screencopy3icc20IccScreencopyContext38ext_image_copy_capture_session_v1_doneEv
quickshell:_ZN2qs7wayland10screencopy3icc20IccScreencopyContext41ext_image_copy_capture_frame_v1_transformEj
quickshell:_ZN2qs7wayland10screencopy3icc20IccScreencopyContext41ext_image_copy_capture_session_v1_stoppedEv
quickshell:_ZN2qs7wayland10screencopy3icc20IccScreencopyContext44ext_image_copy_capture_session_v1_shm_formatEj
quickshell:_ZN2qs7wayland10screencopy3icc20IccScreencopyContext45ext_image_copy_capture_session_v1_buffer_sizeEjj
quickshell:_ZN2qs7wayland10screencopy3icc20IccScreencopyContext47ext_image_copy_capture_session_v1_dmabuf_deviceEP8wl_array
quickshell:_ZN2qs7wayland10screencopy3icc20IccScreencopyContext47ext_image_copy_capture_session_v1_dmabuf_formatEjP8wl_array
quickshell:_ZN2qs7wayland10screencopy3icc20IccScreencopyContext9doCaptureEv
quickshell:_ZN2qs7wayland10screencopy3icc20IccScreencopyContextC1EP33ext_image_copy_capture_session_v1
quickshell:_ZN2qs7wayland10screencopy3icc20IccScreencopyContextC2EP33ext_image_copy_capture_session_v1
quickshell:_ZN2qs7wayland10screencopy3icc20IccScreencopyContextD0Ev
quickshell:_ZN2qs7wayland10screencopy3icc20IccScreencopyContextD1Ev
quickshell:_ZN2qs7wayland10screencopy3icc20IccScreencopyContextD2Ev
quickshell:_ZN2qs7wayland10screencopy3icc22IccOutputSourceManager13captureOutputEP7QScreenb
quickshell:_ZN2qs7wayland10screencopy3icc22IccOutputSourceManager8instanceEv
quickshell:_ZN2qs7wayland10screencopy3icc22IccOutputSourceManagerC1Ev
quickshell:_ZN2qs7wayland10screencopy3icc22IccOutputSourceManagerC2Ev
quickshell:_ZN2qs7wayland10screencopy3wlr20WlrScreencopyContext11submitFrameEv
quickshell:_ZN2qs7wayland10screencopy3wlr20WlrScreencopyContext12captureFrameEv
quickshell:_ZN2qs7wayland10screencopy3wlr20WlrScreencopyContext15updateTransformEb
quickshell:_ZN2qs7wayland10screencopy3wlr20WlrScreencopyContext17onScreenDestroyedEv
quickshell:_ZN2qs7wayland10screencopy3wlr20WlrScreencopyContext20OutputTransformQuery15output_geometryEiiiiiRK7QStringS7_i
quickshell:_ZN2qs7wayland10screencopy3wlr20WlrScreencopyContext20OutputTransformQuery9setScreenEPN15QtWaylandClient14QWaylandScreenE
quickshell:_ZN2qs7wayland10screencopy3wlr20WlrScreencopyContext20OutputTransformQueryC1EPS3_
quickshell:_ZN2qs7wayland10screencopy3wlr20WlrScreencopyContext20OutputTransformQueryC2EPS3_
quickshell:_ZN2qs7wayland10screencopy3wlr20WlrScreencopyContext20OutputTransformQueryD0Ev
quickshell:_ZN2qs7wayland10screencopy3wlr20WlrScreencopyContext20OutputTransformQueryD1Ev
quickshell:_ZN2qs7wayland10screencopy3wlr20WlrScreencopyContext20OutputTransformQueryD2Ev
quickshell:_ZN2qs7wayland10screencopy3wlr20WlrScreencopyContext30zwlr_screencopy_frame_v1_flagsEj
quickshell:_ZN2qs7wayland10screencopy3wlr20WlrScreencopyContext30zwlr_screencopy_frame_v1_readyEjjj
quickshell:_ZN2qs7wayland10screencopy3wlr20WlrScreencopyContext31zwlr_screencopy_frame_v1_bufferEjjjj
quickshell:_ZN2qs7wayland10screencopy3wlr20WlrScreencopyContext31zwlr_screencopy_frame_v1_failedEv
quickshell:_ZN2qs7wayland10screencopy3wlr20WlrScreencopyContext36zwlr_screencopy_frame_v1_buffer_doneEv
quickshell:_ZN2qs7wayland10screencopy3wlr20WlrScreencopyContext37zwlr_screencopy_frame_v1_linux_dmabufEjjj
quickshell:_ZN2qs7wayland10screencopy3wlr20WlrScreencopyContextC1EPNS2_20WlrScreencopyManagerEP7QScreenb5QRect
quickshell:_ZN2qs7wayland10screencopy3wlr20WlrScreencopyContextC2EPNS2_20WlrScreencopyManagerEP7QScreenb5QRect
quickshell:_ZN2qs7wayland10screencopy3wlr20WlrScreencopyContextD0Ev
quickshell:_ZN2qs7wayland10screencopy3wlr20WlrScreencopyContextD1Ev
quickshell:_ZN2qs7wayland10screencopy3wlr20WlrScreencopyContextD2Ev
quickshell:_ZN2qs7wayland10screencopy3wlr20WlrScreencopyManager13captureOutputEP7QScreenb5QRect
quickshell:_ZN2qs7wayland10screencopy3wlr20WlrScreencopyManager8instanceEv
quickshell:_ZN2qs7wayland10screencopy3wlr20WlrScreencopyManagerC1Ev
quickshell:_ZN2qs7wayland10screencopy3wlr20WlrScreencopyManagerC2Ev
quickshell:_ZN2qs7wayland10screencopy8hyprland25HyprlandScreencopyContext12captureFrameEv
quickshell:_ZN2qs7wayland10screencopy8hyprland25HyprlandScreencopyContext19onToplevelDestroyedEv
quickshell:_ZN2qs7wayland10screencopy8hyprland25HyprlandScreencopyContext39hyprland_toplevel_export_frame_v1_flagsEj
quickshell:_ZN2qs7wayland10screencopy8hyprland25HyprlandScreencopyContext39hyprland_toplevel_export_frame_v1_readyEjjj
quickshell:_ZN2qs7wayland10screencopy8hyprland25HyprlandScreencopyContext40hyprland_toplevel_export_frame_v1_bufferEjjjj
quickshell:_ZN2qs7wayland10screencopy8hyprland25HyprlandScreencopyContext40hyprland_toplevel_export_frame_v1_failedEv
quickshell:_ZN2qs7wayland10screencopy8hyprland25HyprlandScreencopyContext45hyprland_toplevel_export_frame_v1_buffer_doneEv
quickshell:_ZN2qs7wayland10screencopy8hyprland25HyprlandScreencopyContext46hyprland_toplevel_export_frame_v1_linux_dmabufEjjj
quickshell:_ZN2qs7wayland10screencopy8hyprland25HyprlandScreencopyContextC1EPNS2_25HyprlandScreencopyManagerEPNS0_19toplevel_management4impl14ToplevelHandleEb
quickshell:_ZN2qs7wayland10screencopy8hyprland25HyprlandScreencopyContextC2EPNS2_25HyprlandScreencopyManagerEPNS0_19toplevel_management4impl14ToplevelHandleEb
quickshell:_ZN2qs7wayland10screencopy8hyprland25HyprlandScreencopyContextD0Ev
quickshell:_ZN2qs7wayland10screencopy8hyprland25HyprlandScreencopyContextD1Ev
quickshell:_ZN2qs7wayland10screencopy8hyprland25HyprlandScreencopyContextD2Ev
quickshell:_ZN2qs7wayland10screencopy8hyprland25HyprlandScreencopyManager15captureToplevelEPNS0_19toplevel_management4impl14ToplevelHandleEb
quickshell:_ZN2qs7wayland10screencopy8hyprland25HyprlandScreencopyManager8instanceEv
quickshell:_ZN2qs7wayland10screencopy8hyprland25HyprlandScreencopyManagerC1Ev
quickshell:_ZN2qs7wayland10screencopy8hyprland25HyprlandScreencopyManagerC2Ev
quickshell:_ZN2qs7wayland11idle_notify11IdleMonitor11qt_metacallEN11QMetaObject4CallEiPPv
quickshell:_ZN2qs7wayland11idle_notify11IdleMonitor11qt_metacastEPKc
quickshell:_ZN2qs7wayland11idle_notify11IdleMonitor12onPostReloadEv
quickshell:_ZN2qs7wayland11idle_notify11IdleMonitor13isIdleChangedEv
quickshell:_ZN2qs7wayland11idle_notify11IdleMonitor14enabledChangedEv
quickshell:_ZN2qs7wayland11idle_notify11IdleMonitor14timeoutChangedEv
quickshell:_ZN2qs7wayland11idle_notify11IdleMonitor16staticMetaObjectE
quickshell:_ZN2qs7wayland11idle_notify11IdleMonitor18updateNotificationEv
quickshell:_ZN2qs7wayland11idle_notify11IdleMonitor24respectInhibitorsChangedEv
quickshell:_ZN2qs7wayland11idle_notify11IdleMonitorD0Ev
quickshell:_ZN2qs7wayland11idle_notify11IdleMonitorD1Ev
quickshell:_ZN2qs7wayland11idle_notify11IdleMonitorD2Ev
quickshell:_ZN2qs7wayland11idle_notify13logIdleNotifyEv
quickshell:_ZN2qs7wayland11idle_notify4impl16IdleNotification11qt_metacallEN11QMetaObject4CallEiPPv
quickshell:_ZN2qs7wayland11idle_notify4impl16IdleNotification11qt_metacastEPKc
quickshell:_ZN2qs7wayland11idle_notify4impl16IdleNotification16staticMetaObjectE
quickshell:_ZN2qs7wayland11idle_notify4impl16IdleNotification30ext_idle_notification_v1_idledEv
quickshell:_ZN2qs7wayland11idle_notify4impl16IdleNotification32ext_idle_notification_v1_resumedEv
quickshell:_ZN2qs7wayland11idle_notify4impl16IdleNotificationD0Ev
quickshell:_ZN2qs7wayland11idle_notify4impl16IdleNotificationD1Ev
quickshell:_ZN2qs7wayland11idle_notify4impl16IdleNotificationD2Ev
quickshell:_ZN2qs7wayland11idle_notify4impl23IdleNotificationManager22createIdleNotificationEjb
quickshell:_ZN2qs7wayland11idle_notify4impl23IdleNotificationManager8instanceEv
quickshell:_ZN2qs7wayland11idle_notify4impl23IdleNotificationManagerC1Ev
quickshell:_ZN2qs7wayland11idle_notify4impl23IdleNotificationManagerC2Ev
quickshell:_ZN2qs7wayland11idle_notify8qslogcat13logIdleNotifyEv
quickshell:_ZN2qs7wayland12idle_inhibit13IdleInhibitor11qt_metacallEN11QMetaObject4CallEiPPv
quickshell:_ZN2qs7wayland12idle_inhibit13IdleInhibitor11qt_metacastEPKc
quickshell:_ZN2qs7wayland12idle_inhibit13IdleInhibitor13windowChangedEv
quickshell:_ZN2qs7wayland12idle_inhibit13IdleInhibitor14enabledChangedEv
quickshell:_ZN2qs7wayland12idle_inhibit13IdleInhibitor16staticMetaObjectE
quickshell:_ZN2qs7wayland12idle_inhibit13IdleInhibitor17onWindowDestroyedEv
quickshell:_ZN2qs7wayland12idle_inhibit13IdleInhibitor18boundWindowChangedEv
quickshell:_ZN2qs7wayland12idle_inhibit13IdleInhibitor23onWaylandSurfaceCreatedEv
quickshell:_ZN2qs7wayland12idle_inhibit13IdleInhibitor24onWaylandWindowDestroyedEv
quickshell:_ZN2qs7wayland12idle_inhibit13IdleInhibitor25onWaylandSurfaceDestroyedEv
quickshell:_ZN2qs7wayland12idle_inhibit13IdleInhibitor25onWindowVisibilityChangedEv
quickshell:_ZN2qs7wayland12idle_inhibit13IdleInhibitor9setWindowEP7QObject
quickshell:_ZN2qs7wayland12idle_inhibit13IdleInhibitorC1Ev
quickshell:_ZN2qs7wayland12idle_inhibit13IdleInhibitorC2Ev
quickshell:_ZN2qs7wayland12idle_inhibit13IdleInhibitorD0Ev
quickshell:_ZN2qs7wayland12idle_inhibit13IdleInhibitorD1Ev
quickshell:_ZN2qs7wayland12idle_inhibit13IdleInhibitorD2Ev
quickshell:_ZN2qs7wayland12idle_inhibit4impl13IdleInhibitorD0Ev
quickshell:_ZN2qs7wayland12idle_inhibit4impl13IdleInhibitorD1Ev
quickshell:_ZN2qs7wayland12idle_inhibit4impl13IdleInhibitorD2Ev
quickshell:_ZN2qs7wayland12idle_inhibit4impl18IdleInhibitManager19createIdleInhibitorEPN15QtWaylandClient14QWaylandWindowE
quickshell:_ZN2qs7wayland12idle_inhibit4impl18IdleInhibitManager8instanceEv
quickshell:_ZN2qs7wayland12idle_inhibit4impl18IdleInhibitManagerC1Ev
quickshell:_ZN2qs7wayland12idle_inhibit4impl18IdleInhibitManagerC2Ev
quickshell:_ZN2qs7wayland15WlOutputTracker11qt_metacallEN11QMetaObject4CallEiPPv
quickshell:_ZN2qs7wayland15WlOutputTracker11qt_metacastEPKc
quickshell:_ZN2qs7wayland15WlOutputTracker11screenAddedEP7QScreen
quickshell:_ZN2qs7wayland15WlOutputTracker12removeOutputEP9wl_output
quickshell:_ZN2qs7wayland15WlOutputTracker13screenRemovedEP7QScreen
quickshell:_ZN2qs7wayland15WlOutputTracker14onQScreenAddedEP7QScreen
quickshell:_ZN2qs7wayland15WlOutputTracker16staticMetaObjectE
quickshell:_ZN2qs7wayland15WlOutputTracker9addOutputEP9wl_output
quickshell:_ZN2qs7wayland17background_effect16BackgroundEffect11qt_metacallEN11QMetaObject4CallEiPPv
quickshell:_ZN2qs7wayland17background_effect16BackgroundEffect11qt_metacastEPKc
quickshell:_ZN2qs7wayland17background_effect16BackgroundEffect13setBlurRegionEP13PendingRegion
quickshell:_ZN2qs7wayland17background_effect16BackgroundEffect16onWindowPolishedEv
quickshell:_ZN2qs7wayland17background_effect16BackgroundEffect16staticMetaObjectE
quickshell:_ZN2qs7wayland17background_effect16BackgroundEffect16updateBlurRegionEv
quickshell:_ZN2qs7wayland17background_effect16BackgroundEffect17blurRegionChangedEv
quickshell:_ZN2qs7wayland17background_effect16BackgroundEffect17onWindowConnectedEv
quickshell:_ZN2qs7wayland17background_effect16BackgroundEffect19commitBlurRegionNowEv
quickshell:_ZN2qs7wayland17background_effect16BackgroundEffect21onBlurRegionDestroyedEv
quickshell:_ZN2qs7wayland17background_effect16BackgroundEffect21qmlAttachedPropertiesEP7QObject
quickshell:_ZN2qs7wayland17background_effect16BackgroundEffect22onProxyWindowDestroyedEv
quickshell:_ZN2qs7wayland17background_effect16BackgroundEffect22onWindowVisibleChangedEv
quickshell:_ZN2qs7wayland17background_effect16BackgroundEffect23onWaylandSurfaceCreatedEv
quickshell:_ZN2qs7wayland17background_effect16BackgroundEffect24onWaylandWindowDestroyedEv
quickshell:_ZN2qs7wayland17background_effect16BackgroundEffect25onWaylandSurfaceDestroyedEv
quickshell:_ZN2qs7wayland17background_effect16BackgroundEffectC1EP15ProxyWindowBase
quickshell:_ZN2qs7wayland17background_effect16BackgroundEffectC2EP15ProxyWindowBase
quickshell:_ZN2qs7wayland17background_effect4impl23BackgroundEffectManager11qt_metacallEN11QMetaObject4CallEiPPv
quickshell:_ZN2qs7wayland17background_effect4impl23BackgroundEffectManager11qt_metacastEPKc
quickshell:_ZN2qs7wayland17background_effect4impl23BackgroundEffectManager16staticMetaObjectE
quickshell:_ZN2qs7wayland17background_effect4impl23BackgroundEffectManager19createEffectSurfaceEPN15QtWaylandClient14QWaylandWindowE
quickshell:_ZN2qs7wayland17background_effect4impl23BackgroundEffectManager20blurAvailableChangedEv
quickshell:_ZN2qs7wayland17background_effect4impl23BackgroundEffectManager45ext_background_effect_manager_v1_capabilitiesEj
quickshell:_ZN2qs7wayland17background_effect4impl23BackgroundEffectManager8instanceEv
quickshell:_ZN2qs7wayland17background_effect4impl23BackgroundEffectManagerC1Ev
quickshell:_ZN2qs7wayland17background_effect4impl23BackgroundEffectManagerC2Ev
quickshell:_ZN2qs7wayland17background_effect4impl23BackgroundEffectSurface13commitSurfaceEv
quickshell:_ZN2qs7wayland17background_effect4impl23BackgroundEffectSurface13setBlurRegionERK7QRegion
quickshell:_ZN2qs7wayland17background_effect4impl23BackgroundEffectSurface8setInertEv
quickshell:_ZN2qs7wayland17background_effect4impl23BackgroundEffectSurfaceC1EP32ext_background_effect_surface_v1P10wl_surface
quickshell:_ZN2qs7wayland17background_effect4impl23BackgroundEffectSurfaceC2EP32ext_background_effect_surface_v1P10wl_surface
quickshell:_ZN2qs7wayland17background_effect4impl23BackgroundEffectSurfaceD0Ev
quickshell:_ZN2qs7wayland17background_effect4impl23BackgroundEffectSurfaceD1Ev
quickshell:_ZN2qs7wayland17background_effect4impl23BackgroundEffectSurfaceD2Ev
quickshell:_ZN2qs7wayland17shortcuts_inhibit17ShortcutInhibitor11qt_metacallEN11QMetaObject4CallEiPPv
quickshell:_ZN2qs7wayland17shortcuts_inhibit17ShortcutInhibitor11qt_metacastEPKc
quickshell:_ZN2qs7wayland17shortcuts_inhibit17ShortcutInhibitor13activeChangedEv
quickshell:_ZN2qs7wayland17shortcuts_inhibit17ShortcutInhibitor13windowChangedEv
quickshell:_ZN2qs7wayland17shortcuts_inhibit17ShortcutInhibitor14enabledChangedEv
quickshell:_ZN2qs7wayland17shortcuts_inhibit17ShortcutInhibitor16staticMetaObjectE
quickshell:_ZN2qs7wayland17shortcuts_inhibit17ShortcutInhibitor17onWindowDestroyedEv
quickshell:_ZN2qs7wayland17shortcuts_inhibit17ShortcutInhibitor18onInhibitorChangedEv
quickshell:_ZN2qs7wayland17shortcuts_inhibit17ShortcutInhibitor20onBoundWindowChangedEv
quickshell:_ZN2qs7wayland17shortcuts_inhibit17ShortcutInhibitor22onFocusedWindowChangedEP7QWindow
quickshell:_ZN2qs7wayland17shortcuts_inhibit17ShortcutInhibitor23onWaylandSurfaceCreatedEv
quickshell:_ZN2qs7wayland17shortcuts_inhibit17ShortcutInhibitor24onInhibitorActiveChangedEv
quickshell:_ZN2qs7wayland17shortcuts_inhibit17ShortcutInhibitor24onWaylandWindowDestroyedEv
quickshell:_ZN2qs7wayland17shortcuts_inhibit17ShortcutInhibitor25onWaylandSurfaceDestroyedEv
quickshell:_ZN2qs7wayland17shortcuts_inhibit17ShortcutInhibitor25onWindowVisibilityChangedEv
quickshell:_ZN2qs7wayland17shortcuts_inhibit17ShortcutInhibitor9cancelledEv
quickshell:_ZN2qs7wayland17shortcuts_inhibit17ShortcutInhibitorC1Ev
quickshell:_ZN2qs7wayland17shortcuts_inhibit17ShortcutInhibitorC2Ev
quickshell:_ZN2qs7wayland17shortcuts_inhibit17ShortcutInhibitorD0Ev
quickshell:_ZN2qs7wayland17shortcuts_inhibit17ShortcutInhibitorD1Ev
quickshell:_ZN2qs7wayland17shortcuts_inhibit17ShortcutInhibitorD2Ev
quickshell:_ZN2qs7wayland17shortcuts_inhibit4impl18ShortcutsInhibitor11qt_metacallEN11QMetaObject4CallEiPPv
quickshell:_ZN2qs7wayland17shortcuts_inhibit4impl18ShortcutsInhibitor11qt_metacastEPKc
quickshell:_ZN2qs7wayland17shortcuts_inhibit4impl18ShortcutsInhibitor13activeChangedEv
quickshell:_ZN2qs7wayland17shortcuts_inhibit4impl18ShortcutsInhibitor16staticMetaObjectE
quickshell:_ZN2qs7wayland17shortcuts_inhibit4impl18ShortcutsInhibitor42zwp_keyboard_shortcuts_inhibitor_v1_activeEv
quickshell:_ZN2qs7wayland17shortcuts_inhibit4impl18ShortcutsInhibitor44zwp_keyboard_shortcuts_inhibitor_v1_inactiveEv
quickshell:_ZN2qs7wayland17shortcuts_inhibit4impl18ShortcutsInhibitorD0Ev
quickshell:_ZN2qs7wayland17shortcuts_inhibit4impl18ShortcutsInhibitorD1Ev
quickshell:_ZN2qs7wayland17shortcuts_inhibit4impl18ShortcutsInhibitorD2Ev
quickshell:_ZN2qs7wayland17shortcuts_inhibit4impl19logShortcutsInhibitEv
quickshell:_ZN2qs7wayland17shortcuts_inhibit4impl23ShortcutsInhibitManager23unrefShortcutsInhibitorEPNS2_18ShortcutsInhibitorE
quickshell:_ZN2qs7wayland17shortcuts_inhibit4impl23ShortcutsInhibitManager24createShortcutsInhibitorEPN15QtWaylandClient14QWaylandWindowE
quickshell:_ZN2qs7wayland17shortcuts_inhibit4impl23ShortcutsInhibitManager8instanceEv
quickshell:_ZN2qs7wayland17shortcuts_inhibit4impl23ShortcutsInhibitManagerC1Ev
quickshell:_ZN2qs7wayland17shortcuts_inhibit4impl23ShortcutsInhibitManagerC2Ev
quickshell:_ZN2qs7wayland17shortcuts_inhibit4impl8qslogcat19logShortcutsInhibitEv
quickshell:_ZN2qs7wayland19toplevel_management15ToplevelManager11qt_metacallEN11QMetaObject4CallEiPPv
quickshell:_ZN2qs7wayland19toplevel_management15ToplevelManager11qt_metacastEPKc
quickshell:_ZN2qs7wayland19toplevel_management15ToplevelManager15onToplevelReadyEPNS1_4impl14ToplevelHandleE
quickshell:_ZN2qs7wayland19toplevel_management15ToplevelManager16onToplevelClosedEv
quickshell:_ZN2qs7wayland19toplevel_management15ToplevelManager16staticMetaObjectE
quickshell:_ZN2qs7wayland19toplevel_management15ToplevelManager17setActiveToplevelERKPNS1_8ToplevelE
quickshell:_ZN2qs7wayland19toplevel_management15ToplevelManager21activeToplevelChangedEv
quickshell:_ZN2qs7wayland19toplevel_management15ToplevelManager23onToplevelActiveChangedEv
quickshell:_ZN2qs7wayland19toplevel_management15ToplevelManager8instanceEv
quickshell:_ZN2qs7wayland19toplevel_management15ToplevelManager9toplevelsEv
quickshell:_ZN2qs7wayland19toplevel_management15ToplevelManagerC1Ev
quickshell:_ZN2qs7wayland19toplevel_management15ToplevelManagerC2Ev
quickshell:_ZN2qs7wayland19toplevel_management18ToplevelManagerQml11qt_metacallEN11QMetaObject4CallEiPPv
quickshell:_ZN2qs7wayland19toplevel_management18ToplevelManagerQml11qt_metacastEPKc
quickshell:_ZN2qs7wayland19toplevel_management18ToplevelManagerQml14activeToplevelEv
quickshell:_ZN2qs7wayland19toplevel_management18ToplevelManagerQml16staticMetaObjectE
quickshell:_ZN2qs7wayland19toplevel_management18ToplevelManagerQml21activeToplevelChangedEv
quickshell:_ZN2qs7wayland19toplevel_management18ToplevelManagerQml9toplevelsEv
quickshell:_ZN2qs7wayland19toplevel_management18ToplevelManagerQmlC1EP7QObject
quickshell:_ZN2qs7wayland19toplevel_management18ToplevelManagerQmlC2EP7QObject
quickshell:_ZN2qs7wayland19toplevel_management4impl14ToplevelHandle11qt_metacallEN11QMetaObject4CallEiPPv
quickshell:_ZN2qs7wayland19toplevel_management4impl14ToplevelHandle11qt_metacastEPKc
quickshell:_ZN2qs7wayland19toplevel_management4impl14ToplevelHandle12appIdChangedEv
quickshell:_ZN2qs7wayland19toplevel_management4impl14ToplevelHandle12fullscreenOnEP7QScreen
quickshell:_ZN2qs7wayland19toplevel_management4impl14ToplevelHandle12setMaximizedEb
quickshell:_ZN2qs7wayland19toplevel_management4impl14ToplevelHandle12setMinimizedEb
quickshell:_ZN2qs7wayland19toplevel_management4impl14ToplevelHandle12setRectangleEP7QWindow5QRect
quickshell:_ZN2qs7wayland19toplevel_management4impl14ToplevelHandle12titleChangedEv
quickshell:_ZN2qs7wayland19toplevel_management4impl14ToplevelHandle13parentChangedEv
quickshell:_ZN2qs7wayland19toplevel_management4impl14ToplevelHandle13setFullscreenEb
quickshell:_ZN2qs7wayland19toplevel_management4impl14ToplevelHandle14onParentClosedEv
quickshell:_ZN2qs7wayland19toplevel_management4impl14ToplevelHandle16activatedChangedEv
quickshell:_ZN2qs7wayland19toplevel_management4impl14ToplevelHandle16maximizedChangedEv
quickshell:_ZN2qs7wayland19toplevel_management4impl14ToplevelHandle16minimizedChangedEv
quickshell:_ZN2qs7wayland19toplevel_management4impl14ToplevelHandle16staticMetaObjectE
quickshell:_ZN2qs7wayland19toplevel_management4impl14ToplevelHandle17fullscreenChangedEv
quickshell:_ZN2qs7wayland19toplevel_management4impl14ToplevelHandle21onRectWindowDestroyedEv
quickshell:_ZN2qs7wayland19toplevel_management4impl14ToplevelHandle36zwlr_foreign_toplevel_handle_v1_doneEv
quickshell:_ZN2qs7wayland19toplevel_management4impl14ToplevelHandle37zwlr_foreign_toplevel_handle_v1_stateEP8wl_array
quickshell:_ZN2qs7wayland19toplevel_management4impl14ToplevelHandle37zwlr_foreign_toplevel_handle_v1_titleERK7QString
quickshell:_ZN2qs7wayland19toplevel_management4impl14ToplevelHandle38zwlr_foreign_toplevel_handle_v1_app_idERK7QString
quickshell:_ZN2qs7wayland19toplevel_management4impl14ToplevelHandle38zwlr_foreign_toplevel_handle_v1_closedEv
quickshell:_ZN2qs7wayland19toplevel_management4impl14ToplevelHandle38zwlr_foreign_toplevel_handle_v1_parentEP31zwlr_foreign_toplevel_handle_v1
quickshell:_ZN2qs7wayland19toplevel_management4impl14ToplevelHandle44zwlr_foreign_toplevel_handle_v1_output_enterEP9wl_output
quickshell:_ZN2qs7wayland19toplevel_management4impl14ToplevelHandle44zwlr_foreign_toplevel_handle_v1_output_leaveEP9wl_output
quickshell:_ZN2qs7wayland19toplevel_management4impl14ToplevelHandle5readyEv
quickshell:_ZN2qs7wayland19toplevel_management4impl14ToplevelHandle6closedEv
quickshell:_ZN2qs7wayland19toplevel_management4impl14ToplevelHandle8activateEv
quickshell:_ZN2qs7wayland19toplevel_management4impl15ToplevelManager11qt_metacallEN11QMetaObject4CallEiPPv
quickshell:_ZN2qs7wayland19toplevel_management4impl15ToplevelManager11qt_metacastEPKc
quickshell:_ZN2qs7wayland19toplevel_management4impl15ToplevelManager13toplevelReadyEPNS2_14ToplevelHandleE
quickshell:_ZN2qs7wayland19toplevel_management4impl15ToplevelManager15onToplevelReadyEv
quickshell:_ZN2qs7wayland19toplevel_management4impl15ToplevelManager16onToplevelClosedEv
quickshell:_ZN2qs7wayland19toplevel_management4impl15ToplevelManager16staticMetaObjectE
quickshell:_ZN2qs7wayland19toplevel_management4impl15ToplevelManager41zwlr_foreign_toplevel_manager_v1_toplevelEP31zwlr_foreign_toplevel_handle_v1
quickshell:_ZN2qs7wayland19toplevel_management4impl15ToplevelManager8instanceEv
quickshell:_ZN2qs7wayland19toplevel_management4impl15ToplevelManager9handleForEP31zwlr_foreign_toplevel_handle_v1
quickshell:_ZN2qs7wayland19toplevel_management4impl15ToplevelManagerC1Ev
quickshell:_ZN2qs7wayland19toplevel_management4impl15ToplevelManagerC2Ev
quickshell:_ZN2qs7wayland19toplevel_management4impl21logToplevelManagementEv
quickshell:_ZN2qs7wayland19toplevel_management4impl8qslogcat21logToplevelManagementEv
quickshell:_ZN2qs7wayland19toplevel_management8Toplevel11qt_metacallEN11QMetaObject4CallEiPPv
quickshell:_ZN2qs7wayland19toplevel_management8Toplevel11qt_metacastEPKc
quickshell:_ZN2qs7wayland19toplevel_management8Toplevel12appIdChangedEv
quickshell:_ZN2qs7wayland19toplevel_management8Toplevel12fullscreenOnEP20QuickshellScreenInfo
quickshell:_ZN2qs7wayland19toplevel_management8Toplevel12setMaximizedEb
quickshell:_ZN2qs7wayland19toplevel_management8Toplevel12setMinimizedEb
quickshell:_ZN2qs7wayland19toplevel_management8Toplevel12setRectangleEP7QObject5QRect
quickshell:_ZN2qs7wayland19toplevel_management8Toplevel12titleChangedEv
quickshell:_ZN2qs7wayland19toplevel_management8Toplevel13parentChangedEv
quickshell:_ZN2qs7wayland19toplevel_management8Toplevel13setFullscreenEb
quickshell:_ZN2qs7wayland19toplevel_management8Toplevel14screensChangedEv
quickshell:_ZN2qs7wayland19toplevel_management8Toplevel14unsetRectangleEv
quickshell:_ZN2qs7wayland19toplevel_management8Toplevel16activatedChangedEv
quickshell:_ZN2qs7wayland19toplevel_management8Toplevel16maximizedChangedEv
quickshell:_ZN2qs7wayland19toplevel_management8Toplevel16minimizedChangedEv
quickshell:_ZN2qs7wayland19toplevel_management8Toplevel16staticMetaObjectE
quickshell:_ZN2qs7wayland19toplevel_management8Toplevel17fullscreenChangedEv
quickshell:_ZN2qs7wayland19toplevel_management8Toplevel25onRectangleProxyConnectedEv
quickshell:_ZN2qs7wayland19toplevel_management8Toplevel25onRectangleProxyDestroyedEv
quickshell:_ZN2qs7wayland19toplevel_management8Toplevel5closeEv
quickshell:_ZN2qs7wayland19toplevel_management8Toplevel6closedEv
quickshell:_ZN2qs7wayland19toplevel_management8Toplevel8activateEv
quickshell:_ZN2qs7wayland19toplevel_management8Toplevel8onClosedEv
quickshell:_ZN2qs7wayland19toplevel_management8ToplevelC1EPNS1_4impl14ToplevelHandleEP7QObject
quickshell:_ZN2qs7wayland19toplevel_management8ToplevelC2EPNS1_4impl14ToplevelHandleEP7QObject
quickshell:_ZN2qs7wayland6buffer15WlBufferManager11qt_metacallEN11QMetaObject4CallEiPPv
quickshell:_ZN2qs7wayland6buffer15WlBufferManager11qt_metacastEPKc
quickshell:_ZN2qs7wayland6buffer15WlBufferManager12createBufferERKNS1_15WlBufferRequestE
quickshell:_ZN2qs7wayland6buffer15WlBufferManager16staticMetaObjectE
quickshell:_ZN2qs7wayland6buffer15WlBufferManager5readyEv
quickshell:_ZN2qs7wayland6buffer15WlBufferManager8instanceEv
quickshell:_ZN2qs7wayland6buffer15WlBufferManagerC1Ev
quickshell:_ZN2qs7wayland6buffer15WlBufferManagerC2Ev
quickshell:_ZN2qs7wayland6buffer15WlBufferManagerD0Ev
quickshell:_ZN2qs7wayland6buffer15WlBufferManagerD1Ev
quickshell:_ZN2qs7wayland6buffer15WlBufferManagerD2Ev
quickshell:_ZN2qs7wayland6buffer15WlBufferRequest5resetEv
quickshell:_ZN2qs7wayland6buffer17WlBufferSwapchain16createBackbufferERKNS1_15WlBufferRequestEPb
quickshell:_ZN2qs7wayland6buffer22WlBufferManagerPrivate11dmabufReadyEv
quickshell:_ZN2qs7wayland6buffer22WlBufferManagerPrivateC1EPNS1_15WlBufferManagerE
quickshell:_ZN2qs7wayland6buffer22WlBufferManagerPrivateC2EPNS1_15WlBufferManagerE
quickshell:_ZN2qs7wayland6buffer22WlBufferQSGDisplayNode13syncSwapchainERKNS1_17WlBufferSwapchainE
quickshell:_ZN2qs7wayland6buffer22WlBufferQSGDisplayNode7setRectERK6QRectF
quickshell:_ZN2qs7wayland6buffer22WlBufferQSGDisplayNodeC1EP12QQuickWindow
quickshell:_ZN2qs7wayland6buffer22WlBufferQSGDisplayNodeC2EP12QQuickWindow
quickshell:_ZN2qs7wayland6buffer3shm11WlShmBufferD0Ev
quickshell:_ZN2qs7wayland6buffer3shm11WlShmBufferD1Ev
quickshell:_ZN2qs7wayland6buffer3shm11WlShmBufferD2Ev
quickshell:_ZN2qs7wayland6buffer3shm13ShmbufManager12createShmbufERKNS1_15WlBufferRequestE
quickshell:_ZN2qs7wayland6buffer3shm21WlShmBufferQSGTexture4syncEPKNS1_8WlBufferEP12QQuickWindow
quickshell:_ZN2qs7wayland6buffer3shmlsER6QDebugPKNS2_11WlShmBufferE
quickshell:_ZN2qs7wayland6buffer6dmabuf11WlDmaBufferC1EOS3_
quickshell:_ZN2qs7wayland6buffer6dmabuf11WlDmaBufferC2EOS3_
quickshell:_ZN2qs7wayland6buffer6dmabuf11WlDmaBufferD0Ev
quickshell:_ZN2qs7wayland6buffer6dmabuf11WlDmaBufferD1Ev
quickshell:_ZN2qs7wayland6buffer6dmabuf11WlDmaBufferD2Ev
quickshell:_ZN2qs7wayland6buffer6dmabuf11WlDmaBufferaSEOS3_
quickshell:_ZN2qs7wayland6buffer6dmabuf15GbmDeviceHandleD1Ev
quickshell:_ZN2qs7wayland6buffer6dmabuf15GbmDeviceHandleD2Ev
quickshell:_ZN2qs7wayland6buffer6dmabuf18LinuxDmabufManager12createDmabufERKNS1_15WlBufferRequestE
quickshell:_ZN2qs7wayland6buffer6dmabuf18LinuxDmabufManager12createDmabufERNS2_15GbmDeviceHandleEjRKNS2_20LinuxDmabufModifiersEjj
quickshell:_ZN2qs7wayland6buffer6dmabuf18LinuxDmabufManager12feedbackDoneEv
quickshell:_ZN2qs7wayland6buffer6dmabuf18LinuxDmabufManager12getGbmDeviceEm
quickshell:_ZN2qs7wayland6buffer6dmabuf18LinuxDmabufManager14unrefGbmDeviceEP10gbm_device
quickshell:_ZN2qs7wayland6buffer6dmabuf18LinuxDmabufManager9dupHandleERKNS2_15GbmDeviceHandleE
quickshell:_ZN2qs7wayland6buffer6dmabuf18LinuxDmabufManagerC1EPNS1_22WlBufferManagerPrivateE
quickshell:_ZN2qs7wayland6buffer6dmabuf18LinuxDmabufManagerC2EPNS1_22WlBufferManagerPrivateE
quickshell:_ZN2qs7wayland6buffer6dmabuf19LinuxDmabufFeedback33zwp_linux_dmabuf_feedback_v1_doneEv
quickshell:_ZN2qs7wayland6buffer6dmabuf19LinuxDmabufFeedback40zwp_linux_dmabuf_feedback_v1_main_deviceEP8wl_array
quickshell:_ZN2qs7wayland6buffer6dmabuf19LinuxDmabufFeedback41zwp_linux_dmabuf_feedback_v1_format_tableEij
quickshell:_ZN2qs7wayland6buffer6dmabuf19LinuxDmabufFeedback41zwp_linux_dmabuf_feedback_v1_tranche_doneEv
quickshell:_ZN2qs7wayland6buffer6dmabuf19LinuxDmabufFeedback42zwp_linux_dmabuf_feedback_v1_tranche_flagsEj
quickshell:_ZN2qs7wayland6buffer6dmabuf19LinuxDmabufFeedback44zwp_linux_dmabuf_feedback_v1_tranche_formatsEP8wl_array
quickshell:_ZN2qs7wayland6buffer6dmabuf19LinuxDmabufFeedback50zwp_linux_dmabuf_feedback_v1_tranche_target_deviceEP8wl_array
quickshell:_ZN2qs7wayland6buffer6dmabuf19LinuxDmabufFeedbackC1EP28zwp_linux_dmabuf_feedback_v1
quickshell:_ZN2qs7wayland6buffer6dmabuf19LinuxDmabufFeedbackC2EP28zwp_linux_dmabuf_feedback_v1
quickshell:_ZN2qs7wayland6buffer6dmabuf19LinuxDmabufFeedbackD0Ev
quickshell:_ZN2qs7wayland6buffer6dmabuf19LinuxDmabufFeedbackD1Ev
quickshell:_ZN2qs7wayland6buffer6dmabuf19LinuxDmabufFeedbackD2Ev
quickshell:_ZN2qs7wayland6buffer6dmabuf21WlDmaBufferQSGTextureD0Ev
quickshell:_ZN2qs7wayland6buffer6dmabuf21WlDmaBufferQSGTextureD1Ev
quickshell:_ZN2qs7wayland6buffer6dmabuf21WlDmaBufferQSGTextureD2Ev
quickshell:_ZN2qs7wayland6buffer6dmabuf26LinuxDmabufFormatSelection12ensureSortedEv
quickshell:_ZN2qs7wayland6buffer6dmabuf27WlDmaBufferVulkanQSGTextureD0Ev
quickshell:_ZN2qs7wayland6buffer6dmabuf27WlDmaBufferVulkanQSGTextureD1Ev
quickshell:_ZN2qs7wayland6buffer6dmabuf27WlDmaBufferVulkanQSGTextureD2Ev
quickshell:_ZN2qs7wayland6buffer6dmabuflsER6QDebugPKNS2_11WlDmaBufferE
quickshell:_ZN2qs7wayland6buffer6dmabuflsER6QDebugRKNS2_12FourCCModStrE
quickshell:_ZN2qs7wayland6buffer6dmabuflsER6QDebugRKNS2_9FourCCStrE
quickshell:_ZN2qs7wayland9workspace12logWorkspaceEv
quickshell:_ZN2qs7wayland9workspace14WorkspaceGroup37ext_workspace_group_handle_v1_removedEv
quickshell:_ZN2qs7wayland9workspace14WorkspaceGroup42ext_workspace_group_handle_v1_capabilitiesEj
quickshell:_ZN2qs7wayland9workspace14WorkspaceGroup42ext_workspace_group_handle_v1_output_enterEP9wl_output
quickshell:_ZN2qs7wayland9workspace14WorkspaceGroup42ext_workspace_group_handle_v1_output_leaveEP9wl_output
quickshell:_ZN2qs7wayland9workspace14WorkspaceGroup45ext_workspace_group_handle_v1_workspace_enterEP23ext_workspace_handle_v1
quickshell:_ZN2qs7wayland9workspace14WorkspaceGroup45ext_workspace_group_handle_v1_workspace_leaveEP23ext_workspace_handle_v1
quickshell:_ZN2qs7wayland9workspace14WorkspaceGroupD0Ev
quickshell:_ZN2qs7wayland9workspace14WorkspaceGroupD1Ev
quickshell:_ZN2qs7wayland9workspace14WorkspaceGroupD2Ev
quickshell:_ZN2qs7wayland9workspace16WorkspaceManager11qt_metacallEN11QMetaObject4CallEiPPv
quickshell:_ZN2qs7wayland9workspace16WorkspaceManager11qt_metacastEPKc
quickshell:_ZN2qs7wayland9workspace16WorkspaceManager12destroyGroupEPNS1_14WorkspaceGroupE
quickshell:_ZN2qs7wayland9workspace16WorkspaceManager12groupCreatedEPNS1_14WorkspaceGroupE
quickshell:_ZN2qs7wayland9workspace16WorkspaceManager12serverCommitEv
quickshell:_ZN2qs7wayland9workspace16WorkspaceManager14groupDestroyedEPNS1_14WorkspaceGroupE
quickshell:_ZN2qs7wayland9workspace16WorkspaceManager16destroyWorkspaceEPNS1_9WorkspaceE
quickshell:_ZN2qs7wayland9workspace16WorkspaceManager16staticMetaObjectE
quickshell:_ZN2qs7wayland9workspace16WorkspaceManager16workspaceCreatedEPNS1_9WorkspaceE
quickshell:_ZN2qs7wayland9workspace16WorkspaceManager18workspaceDestroyedEPNS1_9WorkspaceE
quickshell:_ZN2qs7wayland9workspace16WorkspaceManager29ext_workspace_manager_v1_doneEv
quickshell:_ZN2qs7wayland9workspace16WorkspaceManager33ext_workspace_manager_v1_finishedEv
quickshell:_ZN2qs7wayland9workspace16WorkspaceManager34ext_workspace_manager_v1_workspaceEP23ext_workspace_handle_v1
quickshell:_ZN2qs7wayland9workspace16WorkspaceManager40ext_workspace_manager_v1_workspace_groupEP29ext_workspace_group_handle_v1
quickshell:_ZN2qs7wayland9workspace16WorkspaceManager8instanceEv
quickshell:_ZN2qs7wayland9workspace16WorkspaceManagerC1Ev
quickshell:_ZN2qs7wayland9workspace16WorkspaceManagerC2Ev
quickshell:_ZN2qs7wayland9workspace8qslogcat12logWorkspaceEv
quickshell:_ZN2qs7wayland9workspace9Workspace10enterGroupEPNS1_14WorkspaceGroupE
quickshell:_ZN2qs7wayland9workspace9Workspace10leaveGroupEPNS1_14WorkspaceGroupE
quickshell:_ZN2qs7wayland9workspace9Workspace26ext_workspace_handle_v1_idERK7QString
quickshell:_ZN2qs7wayland9workspace9Workspace28ext_workspace_handle_v1_nameERK7QString
quickshell:_ZN2qs7wayland9workspace9Workspace29ext_workspace_handle_v1_stateEj
quickshell:_ZN2qs7wayland9workspace9Workspace31ext_workspace_handle_v1_removedEv
quickshell:_ZN2qs7wayland9workspace9Workspace35ext_workspace_handle_v1_coordinatesEP8wl_array
quickshell:_ZN2qs7wayland9workspace9Workspace36ext_workspace_handle_v1_capabilitiesEj
quickshell:_ZN2qs7wayland9workspace9WorkspaceD0Ev
quickshell:_ZN2qs7wayland9workspace9WorkspaceD1Ev
quickshell:_ZN2qs7wayland9workspace9WorkspaceD2Ev
quickshell:_ZN2qs7wayland9xdg_shell9XdgWmBase8instanceEv
quickshell:_ZN2qs7wayland9xdg_shell9XdgWmBaseC1Ev
quickshell:_ZN2qs7wayland9xdg_shell9XdgWmBaseC2Ev
quickshell:_ZN2qs7widgets14WrapperManager10setWrapperEP10QQuickItem
quickshell:_ZN2qs7widgets14WrapperManager10unsetChildEv
quickshell:_ZN2qs7widgets14WrapperManager11qt_metacallEN11QMetaObject4CallEiPPv
quickshell:_ZN2qs7widgets14WrapperManager11qt_metacastEPKc
quickshell:_ZN2qs7widgets14WrapperManager12childChangedEv
quickshell:_ZN2qs7widgets14WrapperManager14wrapperChangedEv
quickshell:_ZN2qs7widgets14WrapperManager16onChildDestroyedEv
quickshell:_ZN2qs7widgets14WrapperManager16staticMetaObjectE
quickshell:_ZN2qs7widgets14WrapperManager17componentCompleteEv
quickshell:_ZN2qs7widgets14WrapperManager19setProspectiveChildEP10QQuickItem
quickshell:_ZN2qs7widgets14WrapperManager23initializedChildChangedEv
quickshell:_ZN2qs7widgets14WrapperManager8setChildEP10QQuickItem
quickshell:_ZN2qs7widgets20MarginWrapperManager11qt_metacallEN11QMetaObject4CallEiPPv
quickshell:_ZN2qs7widgets20MarginWrapperManager11qt_metacastEPKc
quickshell:_ZN2qs7widgets20MarginWrapperManager12connectChildEv
quickshell:_ZN2qs7widgets20MarginWrapperManager13marginChangedEv
quickshell:_ZN2qs7widgets20MarginWrapperManager15disconnectChildEv
quickshell:_ZN2qs7widgets20MarginWrapperManager16staticMetaObjectE
quickshell:_ZN2qs7widgets20MarginWrapperManager16topMarginChangedEv
quickshell:_ZN2qs7widgets20MarginWrapperManager17baseMarginChangedEv
quickshell:_ZN2qs7widgets20MarginWrapperManager17componentCompleteEv
quickshell:_ZN2qs7widgets20MarginWrapperManager17leftMarginChangedEv
quickshell:_ZN2qs7widgets20MarginWrapperManager18resizeChildChangedEv
quickshell:_ZN2qs7widgets20MarginWrapperManager18rightMarginChangedEv
quickshell:_ZN2qs7widgets20MarginWrapperManager19bottomMarginChangedEv
quickshell:_ZN2qs7widgets20MarginWrapperManager20implicitWidthChangedEv
quickshell:_ZN2qs7widgets20MarginWrapperManager21implicitHeightChangedEv
quickshell:_ZN2qs7widgets20MarginWrapperManager23setWrapperImplicitWidthEv
quickshell:_ZN2qs7widgets20MarginWrapperManager24setWrapperImplicitHeightEv
quickshell:_ZN2qs7widgets20MarginWrapperManager27onChildImplicitWidthChangedEv
quickshell:_ZN2qs7widgets20MarginWrapperManager28onChildImplicitHeightChangedEv
quickshell:_ZN2qs7widgets20MarginWrapperManagerC1EP7QObject
quickshell:_ZN2qs7widgets20MarginWrapperManagerC2EP7QObject
quickshell:_ZN2qs8hyprland10focus_grab16FocusGrabManager10createGrabEv
quickshell:_ZN2qs8hyprland10focus_grab16FocusGrabManager8instanceEv
quickshell:_ZN2qs8hyprland10focus_grab16FocusGrabManagerC1Ev
quickshell:_ZN2qs8hyprland10focus_grab16FocusGrabManagerC2Ev
quickshell:_ZN2qs8hyprland10focus_grab9FocusGrab11qt_metacallEN11QMetaObject4CallEiPPv
quickshell:_ZN2qs8hyprland10focus_grab9FocusGrab11qt_metacastEPKc
quickshell:_ZN2qs8hyprland10focus_grab9FocusGrab12removeWindowEP7QWindow
quickshell:_ZN2qs8hyprland10focus_grab9FocusGrab16addWaylandWindowEPN15QtWaylandClient14QWaylandWindowE
quickshell:_ZN2qs8hyprland10focus_grab9FocusGrab16startTransactionEv
quickshell:_ZN2qs8hyprland10focus_grab9FocusGrab16staticMetaObjectE
quickshell:_ZN2qs8hyprland10focus_grab9FocusGrab19completeTransactionEv
quickshell:_ZN2qs8hyprland10focus_grab9FocusGrab30hyprland_focus_grab_v1_clearedEv
quickshell:_ZN2qs8hyprland10focus_grab9FocusGrab4syncEv
quickshell:_ZN2qs8hyprland10focus_grab9FocusGrab7clearedEv
quickshell:_ZN2qs8hyprland10focus_grab9FocusGrab9activatedEv
quickshell:_ZN2qs8hyprland10focus_grab9FocusGrab9addWindowEP7QWindow
quickshell:_ZN2qs8hyprland10focus_grab9FocusGrabC1EP22hyprland_focus_grab_v1
quickshell:_ZN2qs8hyprland10focus_grab9FocusGrabC2EP22hyprland_focus_grab_v1
quickshell:_ZN2qs8hyprland10focus_grab9FocusGrabD0Ev
quickshell:_ZN2qs8hyprland10focus_grab9FocusGrabD1Ev
quickshell:_ZN2qs8hyprland10focus_grab9FocusGrabD2Ev
quickshell:_ZN2qs8hyprland16global_shortcuts14GlobalShortcut10onReleasedEv
quickshell:_ZN2qs8hyprland16global_shortcuts14GlobalShortcut11nameChangedEv
quickshell:_ZN2qs8hyprland16global_shortcuts14GlobalShortcut11qt_metacallEN11QMetaObject4CallEiPPv
quickshell:_ZN2qs8hyprland16global_shortcuts14GlobalShortcut11qt_metacastEPKc
quickshell:_ZN2qs8hyprland16global_shortcuts14GlobalShortcut12appidChangedEv
quickshell:_ZN2qs8hyprland16global_shortcuts14GlobalShortcut12onPostReloadEv
quickshell:_ZN2qs8hyprland16global_shortcuts14GlobalShortcut14pressedChangedEv
quickshell:_ZN2qs8hyprland16global_shortcuts14GlobalShortcut14setDescriptionE7QString
quickshell:_ZN2qs8hyprland16global_shortcuts14GlobalShortcut16staticMetaObjectE
quickshell:_ZN2qs8hyprland16global_shortcuts14GlobalShortcut18descriptionChangedEv
quickshell:_ZN2qs8hyprland16global_shortcuts14GlobalShortcut21setTriggerDescriptionE7QString
quickshell:_ZN2qs8hyprland16global_shortcuts14GlobalShortcut25triggerDescriptionChangedEv
quickshell:_ZN2qs8hyprland16global_shortcuts14GlobalShortcut7pressedEv
quickshell:_ZN2qs8hyprland16global_shortcuts14GlobalShortcut7setNameE7QString
quickshell:_ZN2qs8hyprland16global_shortcuts14GlobalShortcut8releasedEv
quickshell:_ZN2qs8hyprland16global_shortcuts14GlobalShortcut8setAppidE7QString
quickshell:_ZN2qs8hyprland16global_shortcuts14GlobalShortcut9onPressedEv
quickshell:_ZN2qs8hyprland16global_shortcuts14GlobalShortcutD0Ev
quickshell:_ZN2qs8hyprland16global_shortcuts14GlobalShortcutD1Ev
quickshell:_ZN2qs8hyprland16global_shortcuts14GlobalShortcutD2Ev
quickshell:_ZN2qs8hyprland16global_shortcuts4impl14GlobalShortcut11qt_metacallEN11QMetaObject4CallEiPPv
quickshell:_ZN2qs8hyprland16global_shortcuts4impl14GlobalShortcut11qt_metacastEPKc
quickshell:_ZN2qs8hyprland16global_shortcuts4impl14GlobalShortcut16staticMetaObjectE
quickshell:_ZN2qs8hyprland16global_shortcuts4impl14GlobalShortcut35hyprland_global_shortcut_v1_pressedEjjj
quickshell:_ZN2qs8hyprland16global_shortcuts4impl14GlobalShortcut36hyprland_global_shortcut_v1_releasedEjjj
quickshell:_ZN2qs8hyprland16global_shortcuts4impl14GlobalShortcut7pressedEv
quickshell:_ZN2qs8hyprland16global_shortcuts4impl14GlobalShortcut8releasedEv
quickshell:_ZN2qs8hyprland16global_shortcuts4impl14GlobalShortcutC1EP27hyprland_global_shortcut_v1
quickshell:_ZN2qs8hyprland16global_shortcuts4impl14GlobalShortcutC2EP27hyprland_global_shortcut_v1
quickshell:_ZN2qs8hyprland16global_shortcuts4impl14GlobalShortcutD0Ev
quickshell:_ZN2qs8hyprland16global_shortcuts4impl14GlobalShortcutD1Ev
quickshell:_ZN2qs8hyprland16global_shortcuts4impl14GlobalShortcutD2Ev
quickshell:_ZN2qs8hyprland16global_shortcuts4impl21GlobalShortcutManager16registerShortcutERK7QStringS6_S6_S6_
quickshell:_ZN2qs8hyprland16global_shortcuts4impl21GlobalShortcutManager18unregisterShortcutERK7QStringS6_
quickshell:_ZN2qs8hyprland16global_shortcuts4impl21GlobalShortcutManager8instanceEv
quickshell:_ZN2qs8hyprland16global_shortcuts4impl21GlobalShortcutManagerC1Ev
quickshell:_ZN2qs8hyprland16global_shortcuts4impl21GlobalShortcutManagerC2Ev
quickshell:_ZN2qs8hyprland17HyprlandFocusGrab10setWindowsE5QListIP7QObjectE
quickshell:_ZN2qs8hyprland17HyprlandFocusGrab11qt_metacallEN11QMetaObject4CallEiPPv
quickshell:_ZN2qs8hyprland17HyprlandFocusGrab11qt_metacastEPKc
quickshell:_ZN2qs8hyprland17HyprlandFocusGrab11tryActivateEv
quickshell:_ZN2qs8hyprland17HyprlandFocusGrab13activeChangedEv
quickshell:_ZN2qs8hyprland17HyprlandFocusGrab13onGrabClearedEv
quickshell:_ZN2qs8hyprland17HyprlandFocusGrab14windowsChangedEv
quickshell:_ZN2qs8hyprland17HyprlandFocusGrab15onGrabActivatedEv
quickshell:_ZN2qs8hyprland17HyprlandFocusGrab16onProxyConnectedEv
quickshell:_ZN2qs8hyprland17HyprlandFocusGrab16staticMetaObjectE
quickshell:_ZN2qs8hyprland17HyprlandFocusGrab17componentCompleteEv
quickshell:_ZN2qs8hyprland17HyprlandFocusGrab17onObjectDestroyedEP7QObject
quickshell:_ZN2qs8hyprland17HyprlandFocusGrab7clearedEv
quickshell:_ZN2qs8hyprland17HyprlandFocusGrab9setActiveEb
quickshell:_ZN2qs8hyprland3ipc11HyprlandIpc10monitorForEP20QuickshellScreenInfo
quickshell:_ZN2qs8hyprland3ipc11HyprlandIpc10workspacesEv
quickshell:_ZN2qs8hyprland3ipc11HyprlandIpc11makeRequestERK10QByteArrayRKSt8functionIFvbS3_EE
quickshell:_ZN2qs8hyprland3ipc11HyprlandIpc11qt_metacallEN11QMetaObject4CallEiPPv
quickshell:_ZN2qs8hyprland3ipc11HyprlandIpc11qt_metacastEPKc
quickshell:_ZN2qs8hyprland3ipc11HyprlandIpc14parseEventArgsE14QByteArrayViewt
quickshell:_ZN2qs8hyprland3ipc11HyprlandIpc15refreshMonitorsEb
quickshell:_ZN2qs8hyprland3ipc11HyprlandIpc16eventSocketReadyEv
quickshell:_ZN2qs8hyprland3ipc11HyprlandIpc16refreshToplevelsEv
quickshell:_ZN2qs8hyprland3ipc11HyprlandIpc16staticMetaObjectE
quickshell:_ZN2qs8hyprland3ipc11HyprlandIpc17compareWorkspacesEPNS1_17HyprlandWorkspaceES4_
quickshell:_ZN2qs8hyprland3ipc11HyprlandIpc17findMonitorByNameERK7QStringbi
quickshell:_ZN2qs8hyprland3ipc11HyprlandIpc17refreshWorkspacesEb
quickshell:_ZN2qs8hyprland3ipc11HyprlandIpc17setFocusedMonitorEPNS1_15HyprlandMonitorE
quickshell:_ZN2qs8hyprland3ipc11HyprlandIpc17toplevelAddressedEPNS_7wayland19toplevel_management4impl14ToplevelHandleEy
quickshell:_ZN2qs8hyprland3ipc11HyprlandIpc19findWorkspaceByNameERK7QStringbi
quickshell:_ZN2qs8hyprland3ipc11HyprlandIpc21activeToplevelChangedEv
quickshell:_ZN2qs8hyprland3ipc11HyprlandIpc21findToplevelByAddressEyb
quickshell:_ZN2qs8hyprland3ipc11HyprlandIpc21focusedMonitorChangedEv
quickshell:_ZN2qs8hyprland3ipc11HyprlandIpc23eventSocketStateChangedEN12QLocalSocket16LocalSocketStateE
quickshell:_ZN2qs8hyprland3ipc11HyprlandIpc23focusedWorkspaceChangedEv
quickshell:_ZN2qs8hyprland3ipc11HyprlandIpc25onFocusedMonitorDestroyedEv
quickshell:_ZN2qs8hyprland3ipc11HyprlandIpc7onEventEPNS1_16HyprlandIpcEventE
quickshell:_ZN2qs8hyprland3ipc11HyprlandIpc8dispatchERK7QString
quickshell:_ZN2qs8hyprland3ipc11HyprlandIpc8instanceEv
quickshell:_ZN2qs8hyprland3ipc11HyprlandIpc8monitorsEv
quickshell:_ZN2qs8hyprland3ipc11HyprlandIpc8rawEventEPNS1_16HyprlandIpcEventE
quickshell:_ZN2qs8hyprland3ipc11HyprlandIpc9connectedEv
quickshell:_ZN2qs8hyprland3ipc11HyprlandIpc9toplevelsEv
quickshell:_ZN2qs8hyprland3ipc11HyprlandIpcC1Ev
quickshell:_ZN2qs8hyprland3ipc11HyprlandIpcC2Ev
quickshell:_ZN2qs8hyprland3ipc14HyprlandIpcQml10monitorForEP20QuickshellScreenInfo
quickshell:_ZN2qs8hyprland3ipc14HyprlandIpcQml10workspacesEv
quickshell:_ZN2qs8hyprland3ipc14HyprlandIpcQml11qt_metacallEN11QMetaObject4CallEiPPv
quickshell:_ZN2qs8hyprland3ipc14HyprlandIpcQml11qt_metacastEPKc
quickshell:_ZN2qs8hyprland3ipc14HyprlandIpcQml15eventSocketPathEv
quickshell:_ZN2qs8hyprland3ipc14HyprlandIpcQml15refreshMonitorsEv
quickshell:_ZN2qs8hyprland3ipc14HyprlandIpcQml16refreshToplevelsEv
quickshell:_ZN2qs8hyprland3ipc14HyprlandIpcQml16staticMetaObjectE
quickshell:_ZN2qs8hyprland3ipc14HyprlandIpcQml17refreshWorkspacesEv
quickshell:_ZN2qs8hyprland3ipc14HyprlandIpcQml17requestSocketPathEv
quickshell:_ZN2qs8hyprland3ipc14HyprlandIpcQml21activeToplevelChangedEv
quickshell:_ZN2qs8hyprland3ipc14HyprlandIpcQml21focusedMonitorChangedEv
quickshell:_ZN2qs8hyprland3ipc14HyprlandIpcQml22bindableActiveToplevelEv
quickshell:_ZN2qs8hyprland3ipc14HyprlandIpcQml22bindableFocusedMonitorEv
quickshell:_ZN2qs8hyprland3ipc14HyprlandIpcQml23focusedWorkspaceChangedEv
quickshell:_ZN2qs8hyprland3ipc14HyprlandIpcQml24bindableFocusedWorkspaceEv
quickshell:_ZN2qs8hyprland3ipc14HyprlandIpcQml8dispatchERK7QString
quickshell:_ZN2qs8hyprland3ipc14HyprlandIpcQml8monitorsEv
quickshell:_ZN2qs8hyprland3ipc14HyprlandIpcQml8rawEventEPNS1_16HyprlandIpcEventE
quickshell:_ZN2qs8hyprland3ipc14HyprlandIpcQml9toplevelsEv
quickshell:_ZN2qs8hyprland3ipc14HyprlandIpcQmlC1Ev
quickshell:_ZN2qs8hyprland3ipc14HyprlandIpcQmlC2Ev
quickshell:_ZN2qs8hyprland3ipc15HyprlandMonitor11nameChangedEv
quickshell:_ZN2qs8hyprland3ipc15HyprlandMonitor11qt_metacallEN11QMetaObject4CallEiPPv
quickshell:_ZN2qs8hyprland3ipc15HyprlandMonitor11qt_metacastEPKc
quickshell:_ZN2qs8hyprland3ipc15HyprlandMonitor12scaleChangedEv
quickshell:_ZN2qs8hyprland3ipc15HyprlandMonitor12widthChangedEv
quickshell:_ZN2qs8hyprland3ipc15HyprlandMonitor13heightChangedEv
quickshell:_ZN2qs8hyprland3ipc15HyprlandMonitor13updateInitialEiRK7QStringS5_
quickshell:_ZN2qs8hyprland3ipc15HyprlandMonitor14focusedChangedEv
quickshell:_ZN2qs8hyprland3ipc15HyprlandMonitor16staticMetaObjectE
quickshell:_ZN2qs8hyprland3ipc15HyprlandMonitor16updateFromObjectE4QMapI7QString8QVariantE
quickshell:_ZN2qs8hyprland3ipc15HyprlandMonitor18descriptionChangedEv
quickshell:_ZN2qs8hyprland3ipc15HyprlandMonitor18setActiveWorkspaceEPNS1_17HyprlandWorkspaceE
quickshell:_ZN2qs8hyprland3ipc15HyprlandMonitor20lastIpcObjectChangedEv
quickshell:_ZN2qs8hyprland3ipc15HyprlandMonitor22activeWorkspaceChangedEv
quickshell:_ZN2qs8hyprland3ipc15HyprlandMonitor26onActiveWorkspaceDestroyedEv
quickshell:_ZN2qs8hyprland3ipc15HyprlandMonitor8xChangedEv
quickshell:_ZN2qs8hyprland3ipc15HyprlandMonitor8yChangedEv
quickshell:_ZN2qs8hyprland3ipc15HyprlandMonitor9idChangedEv
quickshell:_ZN2qs8hyprland3ipc16HyprlandIpcEvent11qt_metacallEN11QMetaObject4CallEiPPv
quickshell:_ZN2qs8hyprland3ipc16HyprlandIpcEvent11qt_metacastEPKc
quickshell:_ZN2qs8hyprland3ipc16HyprlandIpcEvent16staticMetaObjectE
quickshell:_ZN2qs8hyprland3ipc16HyprlandToplevel10setAddressEy
quickshell:_ZN2qs8hyprland3ipc16HyprlandToplevel11qt_metacallEN11QMetaObject4CallEiPPv
quickshell:_ZN2qs8hyprland3ipc16HyprlandToplevel11qt_metacastEPKc
quickshell:_ZN2qs8hyprland3ipc16HyprlandToplevel12setWorkspaceEPNS1_17HyprlandWorkspaceE
quickshell:_ZN2qs8hyprland3ipc16HyprlandToplevel12titleChangedEv
quickshell:_ZN2qs8hyprland3ipc16HyprlandToplevel13updateInitialEyRK7QStringS5_
quickshell:_ZN2qs8hyprland3ipc16HyprlandToplevel13urgentChangedEv
quickshell:_ZN2qs8hyprland3ipc16HyprlandToplevel13waylandHandleEv
quickshell:_ZN2qs8hyprland3ipc16HyprlandToplevel14addressChangedEv
quickshell:_ZN2qs8hyprland3ipc16HyprlandToplevel14monitorChangedEv
quickshell:_ZN2qs8hyprland3ipc16HyprlandToplevel16activatedChangedEv
quickshell:_ZN2qs8hyprland3ipc16HyprlandToplevel16setWaylandHandleEPNS_7wayland19toplevel_management4impl14ToplevelHandleE
quickshell:_ZN2qs8hyprland3ipc16HyprlandToplevel16staticMetaObjectE
quickshell:_ZN2qs8hyprland3ipc16HyprlandToplevel16updateFromObjectERK4QMapI7QString8QVariantE
quickshell:_ZN2qs8hyprland3ipc16HyprlandToplevel16workspaceChangedEv
quickshell:_ZN2qs8hyprland3ipc16HyprlandToplevel17setHyprlandHandleEPS2_
quickshell:_ZN2qs8hyprland3ipc16HyprlandToplevel18onActivatedChangedEv
quickshell:_ZN2qs8hyprland3ipc16HyprlandToplevel20lastIpcObjectChangedEv
quickshell:_ZN2qs8hyprland3ipc16HyprlandToplevel20waylandHandleChangedEv
quickshell:_ZN2qs8hyprland3ipc16HyprlandToplevel21hyprlandHandleChangedEv
quickshell:_ZN2qs8hyprland3ipc16HyprlandToplevel21qmlAttachedPropertiesEP7QObject
quickshell:_ZN2qs8hyprland3ipc16HyprlandToplevelC1EPNS1_11HyprlandIpcE
quickshell:_ZN2qs8hyprland3ipc16HyprlandToplevelC1EPNS1_11HyprlandIpcEPNS_7wayland19toplevel_management8ToplevelE
quickshell:_ZN2qs8hyprland3ipc16HyprlandToplevelC2EPNS1_11HyprlandIpcE
quickshell:_ZN2qs8hyprland3ipc16HyprlandToplevelC2EPNS1_11HyprlandIpcEPNS_7wayland19toplevel_management8ToplevelE
quickshell:_ZN2qs8hyprland3ipc17HyprlandWorkspace10setMonitorEPNS1_15HyprlandMonitorE
quickshell:_ZN2qs8hyprland3ipc17HyprlandWorkspace11clearUrgentEv
quickshell:_ZN2qs8hyprland3ipc17HyprlandWorkspace11nameChangedEv
quickshell:_ZN2qs8hyprland3ipc17HyprlandWorkspace11qt_metacallEN11QMetaObject4CallEiPPv
quickshell:_ZN2qs8hyprland3ipc17HyprlandWorkspace11qt_metacastEPKc
quickshell:_ZN2qs8hyprland3ipc17HyprlandWorkspace12updateUrgentEv
quickshell:_ZN2qs8hyprland3ipc17HyprlandWorkspace13activeChangedEv
quickshell:_ZN2qs8hyprland3ipc17HyprlandWorkspace13updateInitialEiRK7QString
quickshell:_ZN2qs8hyprland3ipc17HyprlandWorkspace13urgentChangedEv
quickshell:_ZN2qs8hyprland3ipc17HyprlandWorkspace14focusedChangedEv
quickshell:_ZN2qs8hyprland3ipc17HyprlandWorkspace14insertToplevelEPNS1_16HyprlandToplevelE
quickshell:_ZN2qs8hyprland3ipc17HyprlandWorkspace14monitorChangedEv
quickshell:_ZN2qs8hyprland3ipc17HyprlandWorkspace14removeToplevelEPNS1_16HyprlandToplevelE
quickshell:_ZN2qs8hyprland3ipc17HyprlandWorkspace16staticMetaObjectE
quickshell:_ZN2qs8hyprland3ipc17HyprlandWorkspace16updateFromObjectE4QMapI7QString8QVariantE
quickshell:_ZN2qs8hyprland3ipc17HyprlandWorkspace18onMonitorDestroyedEv
quickshell:_ZN2qs8hyprland3ipc17HyprlandWorkspace20hasFullscreenChangedEv
quickshell:_ZN2qs8hyprland3ipc17HyprlandWorkspace20lastIpcObjectChangedEv
quickshell:_ZN2qs8hyprland3ipc17HyprlandWorkspace8activateEv
quickshell:_ZN2qs8hyprland3ipc17HyprlandWorkspace9idChangedEv
quickshell:_ZN2qs8hyprland3ipc17HyprlandWorkspaceC1EPNS1_11HyprlandIpcE
quickshell:_ZN2qs8hyprland3ipc17HyprlandWorkspaceC2EPNS1_11HyprlandIpcE
quickshell:_ZN2qs8hyprland3ipc29HyprlandToplevelMappingHandle49hyprland_toplevel_window_mapping_handle_v1_failedEv
quickshell:_ZN2qs8hyprland3ipc29HyprlandToplevelMappingHandle57hyprland_toplevel_window_mapping_handle_v1_window_addressEjj
quickshell:_ZN2qs8hyprland3ipc29HyprlandToplevelMappingHandleD0Ev
quickshell:_ZN2qs8hyprland3ipc29HyprlandToplevelMappingHandleD1Ev
quickshell:_ZN2qs8hyprland3ipc29HyprlandToplevelMappingHandleD2Ev
quickshell:_ZN2qs8hyprland3ipc30HyprlandToplevelMappingManager11qt_metacallEN11QMetaObject4CallEiPPv
quickshell:_ZN2qs8hyprland3ipc30HyprlandToplevelMappingManager11qt_metacastEPKc
quickshell:_ZN2qs8hyprland3ipc30HyprlandToplevelMappingManager13assignAddressEPNS_7wayland19toplevel_management4impl14ToplevelHandleEy
quickshell:_ZN2qs8hyprland3ipc30HyprlandToplevelMappingManager15onToplevelReadyEPNS_7wayland19toplevel_management4impl14ToplevelHandleE
quickshell:_ZN2qs8hyprland3ipc30HyprlandToplevelMappingManager16staticMetaObjectE
quickshell:_ZN2qs8hyprland3ipc30HyprlandToplevelMappingManager17toplevelAddressedEPNS_7wayland19toplevel_management4impl14ToplevelHandleEy
quickshell:_ZN2qs8hyprland3ipc30HyprlandToplevelMappingManager19onToplevelDestroyedEP7QObject
quickshell:_ZN2qs8hyprland3ipc30HyprlandToplevelMappingManager8instanceEv
quickshell:_ZN2qs8hyprland3ipc30HyprlandToplevelMappingManagerC1Ev
quickshell:_ZN2qs8hyprland3ipc30HyprlandToplevelMappingManagerC2Ev
quickshell:_ZN2qs8hyprland7surface14HyprlandWindow10setOpacityEd
quickshell:_ZN2qs8hyprland7surface14HyprlandWindow11qt_metacallEN11QMetaObject4CallEiPPv
quickshell:_ZN2qs8hyprland7surface14HyprlandWindow11qt_metacastEPKc
quickshell:_ZN2qs8hyprland7surface14HyprlandWindow14opacityChangedEv
quickshell:_ZN2qs8hyprland7surface14HyprlandWindow14setVisibleMaskEP13PendingRegion
quickshell:_ZN2qs8hyprland7surface14HyprlandWindow16onWindowPolishedEv
quickshell:_ZN2qs8hyprland7surface14HyprlandWindow16staticMetaObjectE
quickshell:_ZN2qs8hyprland7surface14HyprlandWindow17onWindowConnectedEv
quickshell:_ZN2qs8hyprland7surface14HyprlandWindow17updateVisibleMaskEv
quickshell:_ZN2qs8hyprland7surface14HyprlandWindow18visibleMaskChangedEv
quickshell:_ZN2qs8hyprland7surface14HyprlandWindow21qmlAttachedPropertiesEP7QObject
quickshell:_ZN2qs8hyprland7surface14HyprlandWindow22onProxyWindowDestroyedEv
quickshell:_ZN2qs8hyprland7surface14HyprlandWindow22onVisibleMaskDestroyedEv
quickshell:_ZN2qs8hyprland7surface14HyprlandWindow22onWindowVisibleChangedEv
quickshell:_ZN2qs8hyprland7surface14HyprlandWindow23onWaylandSurfaceCreatedEv
quickshell:_ZN2qs8hyprland7surface14HyprlandWindow24onWaylandWindowDestroyedEv
quickshell:_ZN2qs8hyprland7surface14HyprlandWindow25onWaylandSurfaceDestroyedEv
quickshell:_ZN2qs8hyprland7surface14HyprlandWindowC1EP15ProxyWindowBase
quickshell:_ZN2qs8hyprland7surface14HyprlandWindowC2EP15ProxyWindowBase
quickshell:_ZN2qs8hyprland7surface4impl15HyprlandSurface10setOpacityEd
quickshell:_ZN2qs8hyprland7surface4impl15HyprlandSurface16setVisibleRegionERK7QRegion
quickshell:_ZN2qs8hyprland7surface4impl15HyprlandSurfaceC1EP19hyprland_surface_v1PN15QtWaylandClient14QWaylandWindowE
quickshell:_ZN2qs8hyprland7surface4impl15HyprlandSurfaceC2EP19hyprland_surface_v1PN15QtWaylandClient14QWaylandWindowE
quickshell:_ZN2qs8hyprland7surface4impl15HyprlandSurfaceD0Ev
quickshell:_ZN2qs8hyprland7surface4impl15HyprlandSurfaceD1Ev
quickshell:_ZN2qs8hyprland7surface4impl15HyprlandSurfaceD2Ev
quickshell:_ZN2qs8hyprland7surface4impl22HyprlandSurfaceManager23createHyprlandExtensionEPN15QtWaylandClient14QWaylandWindowE
quickshell:_ZN2qs8hyprland7surface4impl22HyprlandSurfaceManager8instanceEv
quickshell:_ZN2qs8hyprland7surface4impl22HyprlandSurfaceManagerC1Ev
quickshell:_ZN2qs8hyprland7surface4impl22HyprlandSurfaceManagerC2Ev
quickshell:_ZN2qs9bluetooth15BluetoothDevice10cancelPairEv
quickshell:_ZN2qs9bluetooth15BluetoothDevice10disconnectEv
quickshell:_ZN2qs9bluetooth15BluetoothDevice10setBlockedEb
quickshell:_ZN2qs9bluetooth15BluetoothDevice10setTrustedEb
quickshell:_ZN2qs9bluetooth15BluetoothDevice11iconChangedEv
quickshell:_ZN2qs9bluetooth15BluetoothDevice11nameChangedEv
quickshell:_ZN2qs9bluetooth15BluetoothDevice11qt_metacallEN11QMetaObject4CallEiPPv
quickshell:_ZN2qs9bluetooth15BluetoothDevice11qt_metacastEPKc
quickshell:_ZN2qs9bluetooth15BluetoothDevice12addInterfaceERK7QStringRK4QMapIS2_8QVariantE
quickshell:_ZN2qs9bluetooth15BluetoothDevice12setConnectedEb
quickshell:_ZN2qs9bluetooth15BluetoothDevice12stateChangedEv
quickshell:_ZN2qs9bluetooth15BluetoothDevice13bondedChangedEv
quickshell:_ZN2qs9bluetooth15BluetoothDevice13pairedChangedEv
quickshell:_ZN2qs9bluetooth15BluetoothDevice14adapterChangedEv
quickshell:_ZN2qs9bluetooth15BluetoothDevice14addressChangedEv
quickshell:_ZN2qs9bluetooth15BluetoothDevice14batteryChangedEv
quickshell:_ZN2qs9bluetooth15BluetoothDevice14blockedChangedEv
quickshell:_ZN2qs9bluetooth15BluetoothDevice14pairingChangedEv
quickshell:_ZN2qs9bluetooth15BluetoothDevice14setWakeAllowedEb
quickshell:_ZN2qs9bluetooth15BluetoothDevice14trustedChangedEv
quickshell:_ZN2qs9bluetooth15BluetoothDevice15removeInterfaceERK7QString
quickshell:_ZN2qs9bluetooth15BluetoothDevice16connectedChangedEv
quickshell:_ZN2qs9bluetooth15BluetoothDevice16staticMetaObjectE
quickshell:_ZN2qs9bluetooth15BluetoothDevice17deviceNameChangedEv
quickshell:_ZN2qs9bluetooth15BluetoothDevice18onConnectedChangedEv
quickshell:_ZN2qs9bluetooth15BluetoothDevice18wakeAllowedChangedEv
quickshell:_ZN2qs9bluetooth15BluetoothDevice23batteryAvailableChangedEv
quickshell:_ZN2qs9bluetooth15BluetoothDevice4pairEv
quickshell:_ZN2qs9bluetooth15BluetoothDevice6forgetEv
quickshell:_ZN2qs9bluetooth15BluetoothDevice7connectEv
quickshell:_ZN2qs9bluetooth15BluetoothDevice7setNameERK7QString
quickshell:_ZN2qs9bluetooth15BluetoothDeviceC1ERK7QStringP7QObject
quickshell:_ZN2qs9bluetooth15BluetoothDeviceC2ERK7QStringP7QObject
quickshell:_ZN2qs9bluetooth16BluetoothAdapter10setEnabledEb
quickshell:_ZN2qs9bluetooth16BluetoothAdapter11nameChangedEv
quickshell:_ZN2qs9bluetooth16BluetoothAdapter11qt_metacallEN11QMetaObject4CallEiPPv
quickshell:_ZN2qs9bluetooth16BluetoothAdapter11qt_metacastEPKc
quickshell:_ZN2qs9bluetooth16BluetoothAdapter11setPairableEb
quickshell:_ZN2qs9bluetooth16BluetoothAdapter12addInterfaceERK7QStringRK4QMapIS2_8QVariantE
quickshell:_ZN2qs9bluetooth16BluetoothAdapter12removeDeviceERK7QString
quickshell:_ZN2qs9bluetooth16BluetoothAdapter12stateChangedEv
quickshell:_ZN2qs9bluetooth16BluetoothAdapter13stopDiscoveryEv
quickshell:_ZN2qs9bluetooth16BluetoothAdapter14enabledChangedEv
quickshell:_ZN2qs9bluetooth16BluetoothAdapter14setDiscoveringEb
quickshell:_ZN2qs9bluetooth16BluetoothAdapter14startDiscoveryEv
quickshell:_ZN2qs9bluetooth16BluetoothAdapter15pairableChangedEv
quickshell:_ZN2qs9bluetooth16BluetoothAdapter15setDiscoverableEb
quickshell:_ZN2qs9bluetooth16BluetoothAdapter16staticMetaObjectE
quickshell:_ZN2qs9bluetooth16BluetoothAdapter18discoveringChangedEv
quickshell:_ZN2qs9bluetooth16BluetoothAdapter18setPairableTimeoutEj
quickshell:_ZN2qs9bluetooth16BluetoothAdapter19discoverableChangedEv
quickshell:_ZN2qs9bluetooth16BluetoothAdapter22pairableTimeoutChangedEv
quickshell:_ZN2qs9bluetooth16BluetoothAdapter22setDiscoverableTimeoutEj
quickshell:_ZN2qs9bluetooth16BluetoothAdapter26discoverableTimeoutChangedEv
quickshell:_ZN2qs9bluetooth16BluetoothAdapterC1ERK7QStringP7QObject
quickshell:_ZN2qs9bluetooth16BluetoothAdapterC2ERK7QStringP7QObject
quickshell:_ZN2qs9bluetooth20BluetoothDeviceState11qt_metacallEN11QMetaObject4CallEiPPv
quickshell:_ZN2qs9bluetooth20BluetoothDeviceState11qt_metacastEPKc
quickshell:_ZN2qs9bluetooth20BluetoothDeviceState16staticMetaObjectE
quickshell:_ZN2qs9bluetooth20BluetoothDeviceState8toStringENS1_4EnumE
quickshell:_ZN2qs9bluetooth21BluetoothAdapterState11qt_metacallEN11QMetaObject4CallEiPPv
quickshell:_ZN2qs9bluetooth21BluetoothAdapterState11qt_metacastEPKc
quickshell:_ZN2qs9bluetooth21BluetoothAdapterState16staticMetaObjectE
quickshell:_ZN2qs9bluetooth21BluetoothAdapterState8toStringENS1_4EnumE
quickshell:_ZN2qs9bluetooth5Bluez11qt_metacallEN11QMetaObject4CallEiPPv
quickshell:_ZN2qs9bluetooth5Bluez11qt_metacastEPKc
quickshell:_ZN2qs9bluetooth5Bluez16staticMetaObjectE
quickshell:_ZN2qs9bluetooth5Bluez17onInterfacesAddedERK15QDBusObjectPathRK5QHashI7QString4QMapIS6_8QVariantEE
quickshell:_ZN2qs9bluetooth5Bluez19onInterfacesRemovedERK15QDBusObjectPathRK5QListI7QStringE
quickshell:_ZN2qs9bluetooth5Bluez20updateDefaultAdapterEv
quickshell:_ZN2qs9bluetooth5Bluez21defaultAdapterChangedEv
quickshell:_ZN2qs9bluetooth5Bluez4initEv
quickshell:_ZN2qs9bluetooth5Bluez8instanceEv
quickshell:_ZN2qs9bluetooth5BluezC1Ev
quickshell:_ZN2qs9bluetooth5BluezC2Ev
quickshell:_ZN2qs9bluetooth8BluezQml11qt_metacallEN11QMetaObject4CallEiPPv
quickshell:_ZN2qs9bluetooth8BluezQml11qt_metacastEPKc
quickshell:_ZN2qs9bluetooth8BluezQml16staticMetaObjectE
quickshell:_ZN2qs9bluetooth8BluezQml21defaultAdapterChangedEv
quickshell:_ZN2qs9bluetooth8BluezQmlC1Ev
quickshell:_ZN2qs9bluetooth8BluezQmlC2Ev
quickshell:_ZN2qs9debuginfo10systemInfoEv
quickshell:_ZN2qs9debuginfo12combinedInfoEv
quickshell:_ZN2qs9debuginfo7envInfoEv
quickshell:_ZN2qs9debuginfo7gpuInfoEv
quickshell:_ZN2qs9debuginfo9qsVersionEv
quickshell:_ZN2qs9debuginfo9qtVersionEv
quickshell:_ZN30Quickshell_Hyprland__IpcPlugin11qt_metacallEN11QMetaObject4CallEiPPv
quickshell:_ZN30Quickshell_Hyprland__IpcPlugin11qt_metacastEPKc
quickshell:_ZN30Quickshell_Hyprland__IpcPlugin16staticMetaObjectE
quickshell:_ZN30Quickshell_WindowManagerPlugin11qt_metacallEN11QMetaObject4CallEiPPv
quickshell:_ZN30Quickshell_WindowManagerPlugin11qt_metacastEPKc
quickshell:_ZN30Quickshell_WindowManagerPlugin16staticMetaObjectE
quickshell:_ZN31QSWaylandSessionLockIntegration18createShellSurfaceEPN15QtWaylandClient14QWaylandWindowE
quickshell:_ZN31QsInterceptNetworkAccessManager11qt_metacallEN11QMetaObject4CallEiPPv
quickshell:_ZN31QsInterceptNetworkAccessManager11qt_metacastEPKc
quickshell:_ZN31QsInterceptNetworkAccessManager13createRequestEN21QNetworkAccessManager9OperationERK15QNetworkRequestP9QIODevice
quickshell:_ZN31QsInterceptNetworkAccessManager16staticMetaObjectE
quickshell:_ZN31QsInterceptNetworkAccessManagerC1ERK4QDirRK5QHashI7QStringS4_EP7QObject
quickshell:_ZN31QsInterceptNetworkAccessManagerC2ERK4QDirRK5QHashI7QStringS4_EP7QObject
quickshell:_ZN31Quickshell_Services_MprisPlugin11qt_metacallEN11QMetaObject4CallEiPPv
quickshell:_ZN31Quickshell_Services_MprisPlugin11qt_metacastEPKc
quickshell:_ZN31Quickshell_Services_MprisPlugin16staticMetaObjectE
quickshell:_ZN32Quickshell_Services_GreetdPlugin11qt_metacallEN11QMetaObject4CallEiPPv
quickshell:_ZN32Quickshell_Services_GreetdPlugin11qt_metacastEPKc
quickshell:_ZN32Quickshell_Services_GreetdPlugin16staticMetaObjectE
quickshell:_ZN32Quickshell_Services_PolkitPlugin11qt_metacallEN11QMetaObject4CallEiPPv
quickshell:_ZN32Quickshell_Services_PolkitPlugin11qt_metacastEPKc
quickshell:_ZN32Quickshell_Services_PolkitPlugin16staticMetaObjectE
quickshell:_ZN32Quickshell_Services_UPowerPlugin11qt_metacallEN11QMetaObject4CallEiPPv
quickshell:_ZN32Quickshell_Services_UPowerPlugin11qt_metacastEPKc
quickshell:_ZN32Quickshell_Services_UPowerPlugin16staticMetaObjectE
quickshell:_ZN34Quickshell_Services_PipewirePlugin11qt_metacallEN11QMetaObject4CallEiPPv
quickshell:_ZN34Quickshell_Services_PipewirePlugin11qt_metacastEPKc
quickshell:_ZN34Quickshell_Services_PipewirePlugin16staticMetaObjectE
quickshell:_ZN36Quickshell_Hyprland__FocusGrabPlugin11qt_metacallEN11QMetaObject4CallEiPPv
quickshell:_ZN36Quickshell_Hyprland__FocusGrabPlugin11qt_metacastEPKc
quickshell:_ZN36Quickshell_Hyprland__FocusGrabPlugin16staticMetaObjectE
quickshell:_ZN36Quickshell_Services_SystemTrayPlugin11qt_metacallEN11QMetaObject4CallEiPPv
quickshell:_ZN36Quickshell_Services_SystemTrayPlugin11qt_metacastEPKc
quickshell:_ZN36Quickshell_Services_SystemTrayPlugin16staticMetaObjectE
quickshell:_ZN36Quickshell_Wayland__IdleNotifyPlugin11qt_metacallEN11QMetaObject4CallEiPPv
quickshell:_ZN36Quickshell_Wayland__IdleNotifyPlugin11qt_metacastEPKc
quickshell:_ZN36Quickshell_Wayland__IdleNotifyPlugin16staticMetaObjectE
quickshell:_ZN36Quickshell_Wayland__ScreencopyPlugin11qt_metacallEN11QMetaObject4CallEiPPv
quickshell:_ZN36Quickshell_Wayland__ScreencopyPlugin11qt_metacastEPKc
quickshell:_ZN36Quickshell_Wayland__ScreencopyPlugin16staticMetaObjectE
quickshell:_ZN38QsInterceptNetworkAccessManagerFactory6createEP7QObject
quickshell:_ZN39Quickshell_Services_NotificationsPlugin11qt_metacallEN11QMetaObject4CallEiPPv
quickshell:_ZN39Quickshell_Services_NotificationsPlugin11qt_metacastEPKc
quickshell:_ZN39Quickshell_Services_NotificationsPlugin16staticMetaObjectE
quickshell:_ZN39Quickshell_Wayland__IdleInhibitorPlugin11qt_metacallEN11QMetaObject4CallEiPPv
quickshell:_ZN39Quickshell_Wayland__IdleInhibitorPlugin11qt_metacastEPKc
quickshell:_ZN39Quickshell_Wayland__IdleInhibitorPlugin16staticMetaObjectE
quickshell:_ZN39Quickshell_Wayland__WlrLayerShellPlugin11qt_metacallEN11QMetaObject4CallEiPPv
quickshell:_ZN39Quickshell_Wayland__WlrLayerShellPlugin11qt_metacastEPKc
quickshell:_ZN39Quickshell_Wayland__WlrLayerShellPlugin16staticMetaObjectE
quickshell:_ZN3Box16staticMetaObjectE
quickshell:_ZN42Quickshell_Hyprland__GlobalShortcutsPlugin11qt_metacallEN11QMetaObject4CallEiPPv
quickshell:_ZN42Quickshell_Hyprland__GlobalShortcutsPlugin11qt_metacastEPKc
quickshell:_ZN42Quickshell_Hyprland__GlobalShortcutsPlugin16staticMetaObjectE
quickshell:_ZN42Quickshell_Wayland__BackgroundEffectPlugin11qt_metacallEN11QMetaObject4CallEiPPv
quickshell:_ZN42Quickshell_Wayland__BackgroundEffectPlugin11qt_metacastEPKc
quickshell:_ZN42Quickshell_Wayland__BackgroundEffectPlugin16staticMetaObjectE
quickshell:_ZN44Quickshell_Hyprland__SurfaceExtensionsPlugin11qt_metacallEN11QMetaObject4CallEiPPv
quickshell:_ZN44Quickshell_Hyprland__SurfaceExtensionsPlugin11qt_metacastEPKc
quickshell:_ZN44Quickshell_Hyprland__SurfaceExtensionsPlugin16staticMetaObjectE
quickshell:_ZN44Quickshell_Wayland__ShortcutsInhibitorPlugin11qt_metacallEN11QMetaObject4CallEiPPv
quickshell:_ZN44Quickshell_Wayland__ShortcutsInhibitorPlugin11qt_metacastEPKc
quickshell:_ZN44Quickshell_Wayland__ShortcutsInhibitorPlugin16staticMetaObjectE
quickshell:_ZN44Quickshell_Wayland__ToplevelManagementPlugin11qt_metacallEN11QMetaObject4CallEiPPv
quickshell:_ZN44Quickshell_Wayland__ToplevelManagementPlugin11qt_metacastEPKc
quickshell:_ZN44Quickshell_Wayland__ToplevelManagementPlugin16staticMetaObjectE
quickshell:_ZN5Edges10isOpposingE6QFlagsINS_4EnumEE
quickshell:_ZN5Edges16staticMetaObjectE
quickshell:_ZN5Edges4toQtE6QFlagsINS_4EnumEE
quickshell:_ZN5XAtom13_NET_WM_STRUTE
quickshell:_ZN5XAtom15_NET_WM_DESKTOPE
quickshell:_ZN5XAtom21_NET_WM_STRUT_PARTIALE
quickshell:_ZN5XAtom4atomEv
quickshell:_ZN5XAtom4initERK10QByteArray
quickshell:_ZN5XAtom7isValidEv
quickshell:_ZN5XAtom7resolveEv
quickshell:_ZN5XAtom9initAtomsEv
quickshell:_ZN6Greetd11authFailureE7QString
quickshell:_ZN6Greetd11authMessageE7QStringbbb
quickshell:_ZN6Greetd11isAvailableEv
quickshell:_ZN6Greetd11qt_metacallEN11QMetaObject4CallEiPPv
quickshell:_ZN6Greetd11qt_metacastEPKc
quickshell:_ZN6Greetd11userChangedEv
quickshell:_ZN6Greetd12stateChangedEv
quickshell:_ZN6Greetd13cancelSessionEv
quickshell:_ZN6Greetd13createSessionE7QString
quickshell:_ZN6Greetd13readyToLaunchEv
quickshell:_ZN6Greetd16staticMetaObjectE
quickshell:_ZN6Greetd4userEv
quickshell:_ZN6Greetd5errorE7QString
quickshell:_ZN6Greetd5stateEv
quickshell:_ZN6Greetd6launchERK5QListI7QStringE
quickshell:_ZN6Greetd6launchERK5QListI7QStringES4_
quickshell:_ZN6Greetd6launchERK5QListI7QStringES4_b
quickshell:_ZN6Greetd7respondE7QString
quickshell:_ZN6Greetd8launchedEv
quickshell:_ZN6GreetdC1EP7QObject
quickshell:_ZN6GreetdC2EP7QObject
quickshell:_ZN6Socket11pathChangedEv
quickshell:_ZN6Socket11qt_metacallEN11QMetaObject4CallEiPPv
quickshell:_ZN6Socket11qt_metacastEPKc
quickshell:_ZN6Socket12setConnectedEb
quickshell:_ZN6Socket13onSocketErrorEN12QLocalSocket16LocalSocketErrorE
quickshell:_ZN6Socket16staticMetaObjectE
quickshell:_ZN6Socket17connectPathSocketEv
quickshell:_ZN6Socket17onSocketConnectedEv
quickshell:_ZN6Socket20onSocketDisconnectedEv
quickshell:_ZN6Socket22connectionStateChangedEv
quickshell:_ZN6Socket5errorEN12QLocalSocket16LocalSocketErrorE
quickshell:_ZN6Socket5flushEv
quickshell:_ZN6Socket5writeERK7QString
quickshell:_ZN6Socket7setPathE7QString
quickshell:_ZN6Socket9setSocketEP12QLocalSocket
quickshell:_ZN7Anchors16staticMetaObjectE
quickshell:_ZN7Margins16staticMetaObjectE
quickshell:_ZN7Process10onFinishedEiN8QProcess10ExitStatusE
quickshell:_ZN7Process10setCommandE5QListI7QStringE
quickshell:_ZN7Process10setRunningEb
quickshell:_ZN7Process11qt_metacallEN11QMetaObject4CallEiPPv
quickshell:_ZN7Process11qt_metacastEPKc
quickshell:_ZN7Process12onPostReloadEv
quickshell:_ZN7Process13startDetachedEv
quickshell:_ZN7Process14commandChangedEv
quickshell:_ZN7Process14runningChangedEv
quickshell:_ZN7Process14setEnvironmentE5QHashI7QString8QVariantE
quickshell:_ZN7Process15onErrorOccurredEN8QProcess12ProcessErrorE
quickshell:_ZN7Process15setStderrParserEP16DataStreamParser
quickshell:_ZN7Process15setStdinEnabledEb
quickshell:_ZN7Process15setStdoutParserEP16DataStreamParser
quickshell:_ZN7Process16processIdChangedEv
quickshell:_ZN7Process16setupEnvironmentEP8QProcess
quickshell:_ZN7Process16staticMetaObjectE
quickshell:_ZN7Process17onStderrReadyReadEv
quickshell:_ZN7Process17onStdoutReadyReadEv
quickshell:_ZN7Process18environmentChangedEv
quickshell:_ZN7Process19setWorkingDirectoryERK7QString
quickshell:_ZN7Process19startProcessIfReadyEv
quickshell:_ZN7Process19stderrParserChangedEv
quickshell:_ZN7Process19stdinEnabledChangedEv
quickshell:_ZN7Process19stdoutParserChangedEv
quickshell:_ZN7Process21setEnvironmentClearedEb
quickshell:_ZN7Process23environmentClearChangedEv
quickshell:_ZN7Process23onStderrParserDestroyedEv
quickshell:_ZN7Process23onStdoutParserDestroyedEv
quickshell:_ZN7Process23workingDirectoryChangedEv
quickshell:_ZN7Process31onGlobalWorkingDirectoryChangedEv
quickshell:_ZN7Process4execE5QListI7QStringE
quickshell:_ZN7Process4execERKN2qs2io7process14ProcessContextE
quickshell:_ZN7Process5writeERK7QString
quickshell:_ZN7Process6exitedEiN8QProcess10ExitStatusE
quickshell:_ZN7Process6signalEi
quickshell:_ZN7Process7startedEv
quickshell:_ZN7Process9onStartedEv
quickshell:_ZN7ProcessC1EP7QObject
quickshell:_ZN7ProcessC2EP7QObject
quickshell:_ZN7ProcessD0Ev
quickshell:_ZN7ProcessD1Ev
quickshell:_ZN7ProcessD2Ev
quickshell:_ZN7QsPaths10baseRunDirEv
quickshell:_ZN7QsPaths10createLockEv
quickshell:_ZN7QsPaths10linkRunDirEv
quickshell:_ZN7QsPaths11linkPathDirEv
quickshell:_ZN7QsPaths11shellRunDirEv
quickshell:_ZN7QsPaths11shellVfsDirEv
quickshell:_ZN7QsPaths12shellDataDirEv
quickshell:_ZN7QsPaths13shellCacheDirEv
quickshell:_ZN7QsPaths13shellStateDirEv
quickshell:_ZN7QsPaths14instanceRunDirEv
quickshell:_ZN7QsPaths16collectInstancesERK7QStringS2_
quickshell:_ZN7QsPaths4initE7QStringS0_S0_S0_S0_
quickshell:_ZN7QsPaths7ipcPathERK7QString
quickshell:_ZN7QsPaths8basePathERK7QString
quickshell:_ZN7QsPaths8crashDirERK7QString
quickshell:_ZN7QsPaths8instanceEv
quickshell:_ZN7QsPaths9checkLockERK7QStringP16InstanceLockInfob
quickshell:_ZN8PamError11qt_metacallEN11QMetaObject4CallEiPPv
quickshell:_ZN8PamError11qt_metacastEPKc
quickshell:_ZN8PamError16staticMetaObjectE
quickshell:_ZN8PamError8toStringENS_4EnumE
quickshell:_ZN8Variants10instanceAtEP16QQmlListPropertyI7QObjectEx
quickshell:_ZN8Variants11qt_metacallEN11QMetaObject4CallEiPPv
quickshell:_ZN8Variants11qt_metacastEPKc
quickshell:_ZN8Variants12modelChangedEv
quickshell:_ZN8Variants13instanceCountEP16QQmlListPropertyI7QObjectE
quickshell:_ZN8Variants14updateVariantsEv
quickshell:_ZN8Variants16instancesChangedEv
quickshell:_ZN8Variants16staticMetaObjectE
quickshell:_ZN8Variants17componentCompleteEv
quickshell:_ZN8Variants8onReloadEP7QObject
quickshell:_ZN8Variants8setModelERK8QVariant
quickshell:_ZN8Variants9instancesEv
quickshell:_ZN8qslogcat11logDbusMenuEv
quickshell:_ZN8qslogcat12logIncubatorEv
quickshell:_ZN8qslogcat13logQmlScannerEv
quickshell:_ZN8qslogcat14logQsInterceptEv
quickshell:_ZN8qslogcat17logDbusPropertiesEv
quickshell:_ZN8qslogcat21logStatusNotifierHostEv
quickshell:_ZN8qslogcat21logStatusNotifierItemEv
quickshell:_ZN8qslogcat24logStatusNotifierWatcherEv
quickshell:_ZN8qslogcat6logPamEv
quickshell:_ZN8qslogcat7logBareEv
quickshell:_ZN8qslogcat9logSocketEv
quickshell:_ZN9PamResult11qt_metacallEN11QMetaObject4CallEiPPv
quickshell:_ZN9PamResult11qt_metacastEPKc
quickshell:_ZN9PamResult16staticMetaObjectE
quickshell:_ZN9PamResult8toStringENS_4EnumE
quickshell:_ZN9QtWayland11xdg_surface10fromObjectEP11xdg_surface
quickshell:_ZN9QtWayland11xdg_surface12get_toplevelEv
quickshell:_ZN9QtWayland11xdg_surface13ack_configureEj
quickshell:_ZN9QtWayland11xdg_surface13init_listenerEv
quickshell:_ZN9QtWayland11xdg_surface16handle_configureEPvP11xdg_surfacej
quickshell:_ZN9QtWayland11xdg_surface19set_window_geometryEiiii
quickshell:_ZN9QtWayland11xdg_surface21xdg_surface_configureEj
quickshell:_ZN9QtWayland11xdg_surface22m_xdg_surface_listenerE
quickshell:_ZN9QtWayland11xdg_surface4initEP11wl_registryji
quickshell:_ZN9QtWayland11xdg_surface4initEP11xdg_surface
quickshell:_ZN9QtWayland11xdg_surface7destroyEv
quickshell:_ZN9QtWayland11xdg_surface9get_popupEP11xdg_surfaceP14xdg_positioner
quickshell:_ZN9QtWayland11xdg_surface9interfaceEv
quickshell:_ZN9QtWayland11xdg_surfaceC1EP11wl_registryji
quickshell:_ZN9QtWayland11xdg_surfaceC1EP11xdg_surface
quickshell:_ZN9QtWayland11xdg_surfaceC1Ev
quickshell:_ZN9QtWayland11xdg_surfaceC2EP11wl_registryji
quickshell:_ZN9QtWayland11xdg_surfaceC2EP11xdg_surface
quickshell:_ZN9QtWayland11xdg_surfaceC2Ev
quickshell:_ZN9QtWayland11xdg_surfaceD0Ev
quickshell:_ZN9QtWayland11xdg_surfaceD1Ev
quickshell:_ZN9QtWayland11xdg_surfaceD2Ev
quickshell:_ZN9QtWayland11xdg_wm_base10fromObjectEP11xdg_wm_base
quickshell:_ZN9QtWayland11xdg_wm_base11handle_pingEPvP11xdg_wm_basej
quickshell:_ZN9QtWayland11xdg_wm_base13init_listenerEv
quickshell:_ZN9QtWayland11xdg_wm_base15get_xdg_surfaceEP10wl_surface
quickshell:_ZN9QtWayland11xdg_wm_base16xdg_wm_base_pingEj
quickshell:_ZN9QtWayland11xdg_wm_base17create_positionerEv
quickshell:_ZN9QtWayland11xdg_wm_base22m_xdg_wm_base_listenerE
quickshell:_ZN9QtWayland11xdg_wm_base4initEP11wl_registryji
quickshell:_ZN9QtWayland11xdg_wm_base4initEP11xdg_wm_base
quickshell:_ZN9QtWayland11xdg_wm_base4pongEj
quickshell:_ZN9QtWayland11xdg_wm_base7destroyEv
quickshell:_ZN9QtWayland11xdg_wm_base9interfaceEv
quickshell:_ZN9QtWayland11xdg_wm_baseC1EP11wl_registryji
quickshell:_ZN9QtWayland11xdg_wm_baseC1EP11xdg_wm_base
quickshell:_ZN9QtWayland11xdg_wm_baseC1Ev
quickshell:_ZN9QtWayland11xdg_wm_baseC2EP11wl_registryji
quickshell:_ZN9QtWayland11xdg_wm_baseC2EP11xdg_wm_base
quickshell:_ZN9QtWayland11xdg_wm_baseC2Ev
quickshell:_ZN9QtWayland11xdg_wm_baseD0Ev
quickshell:_ZN9QtWayland11xdg_wm_baseD1Ev
quickshell:_ZN9QtWayland11xdg_wm_baseD2Ev
quickshell:_ZN9QtWayland12xdg_toplevel10fromObjectEP12xdg_toplevel
quickshell:_ZN9QtWayland12xdg_toplevel10set_app_idERK7QString
quickshell:_ZN9QtWayland12xdg_toplevel10set_parentEP12xdg_toplevel
quickshell:_ZN9QtWayland12xdg_toplevel12handle_closeEPvP12xdg_toplevel
quickshell:_ZN9QtWayland12xdg_toplevel12set_max_sizeEii
quickshell:_ZN9QtWayland12xdg_toplevel12set_min_sizeEii
quickshell:_ZN9QtWayland12xdg_toplevel13init_listenerEv
quickshell:_ZN9QtWayland12xdg_toplevel13set_maximizedEv
quickshell:_ZN9QtWayland12xdg_toplevel13set_minimizedEv
quickshell:_ZN9QtWayland12xdg_toplevel14set_fullscreenEP9wl_output
quickshell:_ZN9QtWayland12xdg_toplevel15unset_maximizedEv
quickshell:_ZN9QtWayland12xdg_toplevel16handle_configureEPvP12xdg_topleveliiP8wl_array
quickshell:_ZN9QtWayland12xdg_toplevel16show_window_menuEP7wl_seatjii
quickshell:_ZN9QtWayland12xdg_toplevel16unset_fullscreenEv
quickshell:_ZN9QtWayland12xdg_toplevel18xdg_toplevel_closeEv
quickshell:_ZN9QtWayland12xdg_toplevel22handle_wm_capabilitiesEPvP12xdg_toplevelP8wl_array
quickshell:_ZN9QtWayland12xdg_toplevel22xdg_toplevel_configureEiiP8wl_array
quickshell:_ZN9QtWayland12xdg_toplevel23handle_configure_boundsEPvP12xdg_toplevelii
quickshell:_ZN9QtWayland12xdg_toplevel23m_xdg_toplevel_listenerE
quickshell:_ZN9QtWayland12xdg_toplevel28xdg_toplevel_wm_capabilitiesEP8wl_array
quickshell:_ZN9QtWayland12xdg_toplevel29xdg_toplevel_configure_boundsEii
quickshell:_ZN9QtWayland12xdg_toplevel4initEP11wl_registryji
quickshell:_ZN9QtWayland12xdg_toplevel4initEP12xdg_toplevel
quickshell:_ZN9QtWayland12xdg_toplevel4moveEP7wl_seatj
quickshell:_ZN9QtWayland12xdg_toplevel6resizeEP7wl_seatjj
quickshell:_ZN9QtWayland12xdg_toplevel7destroyEv
quickshell:_ZN9QtWayland12xdg_toplevel9interfaceEv
quickshell:_ZN9QtWayland12xdg_toplevel9set_titleERK7QString
quickshell:_ZN9QtWayland12xdg_toplevelC1EP11wl_registryji
quickshell:_ZN9QtWayland12xdg_toplevelC1EP12xdg_toplevel
quickshell:_ZN9QtWayland12xdg_toplevelC1Ev
quickshell:_ZN9QtWayland12xdg_toplevelC2EP11wl_registryji
quickshell:_ZN9QtWayland12xdg_toplevelC2EP12xdg_toplevel
quickshell:_ZN9QtWayland12xdg_toplevelC2Ev
quickshell:_ZN9QtWayland12xdg_toplevelD0Ev
quickshell:_ZN9QtWayland12xdg_toplevelD1Ev
quickshell:_ZN9QtWayland12xdg_toplevelD2Ev
quickshell:_ZN9QtWayland14xdg_positioner10fromObjectEP14xdg_positioner
quickshell:_ZN9QtWayland14xdg_positioner10set_anchorEj
quickshell:_ZN9QtWayland14xdg_positioner10set_offsetEii
quickshell:_ZN9QtWayland14xdg_positioner11set_gravityEj
quickshell:_ZN9QtWayland14xdg_positioner12set_reactiveEv
quickshell:_ZN9QtWayland14xdg_positioner15set_anchor_rectEiiii
quickshell:_ZN9QtWayland14xdg_positioner15set_parent_sizeEii
quickshell:_ZN9QtWayland14xdg_positioner20set_parent_configureEj
quickshell:_ZN9QtWayland14xdg_positioner25set_constraint_adjustmentEj
quickshell:_ZN9QtWayland14xdg_positioner4initEP11wl_registryji
quickshell:_ZN9QtWayland14xdg_positioner4initEP14xdg_positioner
quickshell:_ZN9QtWayland14xdg_positioner7destroyEv
quickshell:_ZN9QtWayland14xdg_positioner8set_sizeEii
quickshell:_ZN9QtWayland14xdg_positioner9interfaceEv
quickshell:_ZN9QtWayland14xdg_positionerC1EP11wl_registryji
quickshell:_ZN9QtWayland14xdg_positionerC1EP14xdg_positioner
quickshell:_ZN9QtWayland14xdg_positionerC1Ev
quickshell:_ZN9QtWayland14xdg_positionerC2EP11wl_registryji
quickshell:_ZN9QtWayland14xdg_positionerC2EP14xdg_positioner
quickshell:_ZN9QtWayland14xdg_positionerC2Ev
quickshell:_ZN9QtWayland14xdg_positionerD0Ev
quickshell:_ZN9QtWayland14xdg_positionerD1Ev
quickshell:_ZN9QtWayland14xdg_positionerD2Ev
quickshell:_ZN9QtWayland18zdwl_ipc_output_v210fromObjectEP18zdwl_ipc_output_v2
quickshell:_ZN9QtWayland18zdwl_ipc_output_v210handle_tagEPvP18zdwl_ipc_output_v2jjjj
quickshell:_ZN9QtWayland18zdwl_ipc_output_v210set_layoutEj
quickshell:_ZN9QtWayland18zdwl_ipc_output_v212handle_appidEPvP18zdwl_ipc_output_v2PKc
quickshell:_ZN9QtWayland18zdwl_ipc_output_v212handle_frameEPvP18zdwl_ipc_output_v2
quickshell:_ZN9QtWayland18zdwl_ipc_output_v212handle_titleEPvP18zdwl_ipc_output_v2PKc
quickshell:_ZN9QtWayland18zdwl_ipc_output_v212handle_widthEPvP18zdwl_ipc_output_v2i
quickshell:_ZN9QtWayland18zdwl_ipc_output_v213handle_activeEPvP18zdwl_ipc_output_v2j
quickshell:_ZN9QtWayland18zdwl_ipc_output_v213handle_heightEPvP18zdwl_ipc_output_v2i
quickshell:_ZN9QtWayland18zdwl_ipc_output_v213handle_layoutEPvP18zdwl_ipc_output_v2j
quickshell:_ZN9QtWayland18zdwl_ipc_output_v213init_listenerEv
quickshell:_ZN9QtWayland18zdwl_ipc_output_v214handle_keymodeEPvP18zdwl_ipc_output_v2PKc
quickshell:_ZN9QtWayland18zdwl_ipc_output_v215handle_floatingEPvP18zdwl_ipc_output_v2j
quickshell:_ZN9QtWayland18zdwl_ipc_output_v215set_client_tagsEjj
quickshell:_ZN9QtWayland18zdwl_ipc_output_v216handle_kb_layoutEPvP18zdwl_ipc_output_v2PKc
quickshell:_ZN9QtWayland18zdwl_ipc_output_v217handle_fullscreenEPvP18zdwl_ipc_output_v2j
quickshell:_ZN9QtWayland18zdwl_ipc_output_v217handle_last_layerEPvP18zdwl_ipc_output_v2PKc
quickshell:_ZN9QtWayland18zdwl_ipc_output_v218handle_scalefactorEPvP18zdwl_ipc_output_v2j
quickshell:_ZN9QtWayland18zdwl_ipc_output_v220handle_layout_symbolEPvP18zdwl_ipc_output_v2PKc
quickshell:_ZN9QtWayland18zdwl_ipc_output_v220zdwl_ipc_output_v2_xEi
quickshell:_ZN9QtWayland18zdwl_ipc_output_v220zdwl_ipc_output_v2_yEi
quickshell:_ZN9QtWayland18zdwl_ipc_output_v222zdwl_ipc_output_v2_tagEjjjj
quickshell:_ZN9QtWayland18zdwl_ipc_output_v224handle_toggle_visibilityEPvP18zdwl_ipc_output_v2
quickshell:_ZN9QtWayland18zdwl_ipc_output_v224zdwl_ipc_output_v2_appidERK7QString
quickshell:_ZN9QtWayland18zdwl_ipc_output_v224zdwl_ipc_output_v2_frameEv
quickshell:_ZN9QtWayland18zdwl_ipc_output_v224zdwl_ipc_output_v2_titleERK7QString
quickshell:_ZN9QtWayland18zdwl_ipc_output_v224zdwl_ipc_output_v2_widthEi
quickshell:_ZN9QtWayland18zdwl_ipc_output_v225zdwl_ipc_output_v2_activeEj
quickshell:_ZN9QtWayland18zdwl_ipc_output_v225zdwl_ipc_output_v2_heightEi
quickshell:_ZN9QtWayland18zdwl_ipc_output_v225zdwl_ipc_output_v2_layoutEj
quickshell:_ZN9QtWayland18zdwl_ipc_output_v226zdwl_ipc_output_v2_keymodeERK7QString
quickshell:_ZN9QtWayland18zdwl_ipc_output_v227zdwl_ipc_output_v2_floatingEj
quickshell:_ZN9QtWayland18zdwl_ipc_output_v228zdwl_ipc_output_v2_kb_layoutERK7QString
quickshell:_ZN9QtWayland18zdwl_ipc_output_v229m_zdwl_ipc_output_v2_listenerE
quickshell:_ZN9QtWayland18zdwl_ipc_output_v229zdwl_ipc_output_v2_fullscreenEj
quickshell:_ZN9QtWayland18zdwl_ipc_output_v229zdwl_ipc_output_v2_last_layerERK7QString
quickshell:_ZN9QtWayland18zdwl_ipc_output_v230zdwl_ipc_output_v2_scalefactorEj
quickshell:_ZN9QtWayland18zdwl_ipc_output_v232zdwl_ipc_output_v2_layout_symbolERK7QString
quickshell:_ZN9QtWayland18zdwl_ipc_output_v236zdwl_ipc_output_v2_toggle_visibilityEv
quickshell:_ZN9QtWayland18zdwl_ipc_output_v24initEP11wl_registryji
quickshell:_ZN9QtWayland18zdwl_ipc_output_v24initEP18zdwl_ipc_output_v2
quickshell:_ZN9QtWayland18zdwl_ipc_output_v24quitEv
quickshell:_ZN9QtWayland18zdwl_ipc_output_v27releaseEv
quickshell:_ZN9QtWayland18zdwl_ipc_output_v28dispatchERK7QStringS3_S3_S3_S3_S3_
quickshell:_ZN9QtWayland18zdwl_ipc_output_v28handle_xEPvP18zdwl_ipc_output_v2i
quickshell:_ZN9QtWayland18zdwl_ipc_output_v28handle_yEPvP18zdwl_ipc_output_v2i
quickshell:_ZN9QtWayland18zdwl_ipc_output_v28set_tagsEjj
quickshell:_ZN9QtWayland18zdwl_ipc_output_v29interfaceEv
quickshell:_ZN9QtWayland18zdwl_ipc_output_v2C1EP11wl_registryji
quickshell:_ZN9QtWayland18zdwl_ipc_output_v2C1EP18zdwl_ipc_output_v2
quickshell:_ZN9QtWayland18zdwl_ipc_output_v2C1Ev
quickshell:_ZN9QtWayland18zdwl_ipc_output_v2C2EP11wl_registryji
quickshell:_ZN9QtWayland18zdwl_ipc_output_v2C2EP18zdwl_ipc_output_v2
quickshell:_ZN9QtWayland18zdwl_ipc_output_v2C2Ev
quickshell:_ZN9QtWayland18zdwl_ipc_output_v2D0Ev
quickshell:_ZN9QtWayland18zdwl_ipc_output_v2D1Ev
quickshell:_ZN9QtWayland18zdwl_ipc_output_v2D2Ev
quickshell:_ZN9QtWayland19ext_session_lock_v110fromObjectEP19ext_session_lock_v1
quickshell:_ZN9QtWayland19ext_session_lock_v113handle_lockedEPvP19ext_session_lock_v1
quickshell:_ZN9QtWayland19ext_session_lock_v113init_listenerEv
quickshell:_ZN9QtWayland19ext_session_lock_v115handle_finishedEPvP19ext_session_lock_v1
quickshell:_ZN9QtWayland19ext_session_lock_v116get_lock_surfaceEP10wl_surfaceP9wl_output
quickshell:_ZN9QtWayland19ext_session_lock_v118unlock_and_destroyEv
quickshell:_ZN9QtWayland19ext_session_lock_v126ext_session_lock_v1_lockedEv
quickshell:_ZN9QtWayland19ext_session_lock_v128ext_session_lock_v1_finishedEv
quickshell:_ZN9QtWayland19ext_session_lock_v130m_ext_session_lock_v1_listenerE
quickshell:_ZN9QtWayland19ext_session_lock_v14initEP11wl_registryji
quickshell:_ZN9QtWayland19ext_session_lock_v14initEP19ext_session_lock_v1
quickshell:_ZN9QtWayland19ext_session_lock_v17destroyEv
quickshell:_ZN9QtWayland19ext_session_lock_v19interfaceEv
quickshell:_ZN9QtWayland19ext_session_lock_v1C1EP11wl_registryji
quickshell:_ZN9QtWayland19ext_session_lock_v1C1EP19ext_session_lock_v1
quickshell:_ZN9QtWayland19ext_session_lock_v1C1Ev
quickshell:_ZN9QtWayland19ext_session_lock_v1C2EP11wl_registryji
quickshell:_ZN9QtWayland19ext_session_lock_v1C2EP19ext_session_lock_v1
quickshell:_ZN9QtWayland19ext_session_lock_v1C2Ev
quickshell:_ZN9QtWayland19ext_session_lock_v1D0Ev
quickshell:_ZN9QtWayland19ext_session_lock_v1D1Ev
quickshell:_ZN9QtWayland19ext_session_lock_v1D2Ev
quickshell:_ZN9QtWayland19hyprland_surface_v110fromObjectEP19hyprland_surface_v1
quickshell:_ZN9QtWayland19hyprland_surface_v111set_opacityEi
quickshell:_ZN9QtWayland19hyprland_surface_v118set_visible_regionEP9wl_region
quickshell:_ZN9QtWayland19hyprland_surface_v14initEP11wl_registryji
quickshell:_ZN9QtWayland19hyprland_surface_v14initEP19hyprland_surface_v1
quickshell:_ZN9QtWayland19hyprland_surface_v17destroyEv
quickshell:_ZN9QtWayland19hyprland_surface_v19interfaceEv
quickshell:_ZN9QtWayland19hyprland_surface_v1C1EP11wl_registryji
quickshell:_ZN9QtWayland19hyprland_surface_v1C1EP19hyprland_surface_v1
quickshell:_ZN9QtWayland19hyprland_surface_v1C1Ev
quickshell:_ZN9QtWayland19hyprland_surface_v1C2EP11wl_registryji
quickshell:_ZN9QtWayland19hyprland_surface_v1C2EP19hyprland_surface_v1
quickshell:_ZN9QtWayland19hyprland_surface_v1C2Ev
quickshell:_ZN9QtWayland19hyprland_surface_v1D0Ev
quickshell:_ZN9QtWayland19hyprland_surface_v1D1Ev
quickshell:_ZN9QtWayland19hyprland_surface_v1D2Ev
quickshell:_ZN9QtWayland19zdwl_ipc_manager_v210fromObjectEP19zdwl_ipc_manager_v2
quickshell:_ZN9QtWayland19zdwl_ipc_manager_v210get_outputEP9wl_output
quickshell:_ZN9QtWayland19zdwl_ipc_manager_v211handle_tagsEPvP19zdwl_ipc_manager_v2j
quickshell:_ZN9QtWayland19zdwl_ipc_manager_v213handle_layoutEPvP19zdwl_ipc_manager_v2PKc
quickshell:_ZN9QtWayland19zdwl_ipc_manager_v213init_listenerEv
quickshell:_ZN9QtWayland19zdwl_ipc_manager_v224zdwl_ipc_manager_v2_tagsEj
quickshell:_ZN9QtWayland19zdwl_ipc_manager_v226zdwl_ipc_manager_v2_layoutERK7QString
quickshell:_ZN9QtWayland19zdwl_ipc_manager_v230m_zdwl_ipc_manager_v2_listenerE
quickshell:_ZN9QtWayland19zdwl_ipc_manager_v24initEP11wl_registryji
quickshell:_ZN9QtWayland19zdwl_ipc_manager_v24initEP19zdwl_ipc_manager_v2
quickshell:_ZN9QtWayland19zdwl_ipc_manager_v27releaseEv
quickshell:_ZN9QtWayland19zdwl_ipc_manager_v29interfaceEv
quickshell:_ZN9QtWayland19zdwl_ipc_manager_v2C1EP11wl_registryji
quickshell:_ZN9QtWayland19zdwl_ipc_manager_v2C1EP19zdwl_ipc_manager_v2
quickshell:_ZN9QtWayland19zdwl_ipc_manager_v2C1Ev
quickshell:_ZN9QtWayland19zdwl_ipc_manager_v2C2EP11wl_registryji
quickshell:_ZN9QtWayland19zdwl_ipc_manager_v2C2EP19zdwl_ipc_manager_v2
quickshell:_ZN9QtWayland19zdwl_ipc_manager_v2C2Ev
quickshell:_ZN9QtWayland19zdwl_ipc_manager_v2D0Ev
quickshell:_ZN9QtWayland19zdwl_ipc_manager_v2D1Ev
quickshell:_ZN9QtWayland19zdwl_ipc_manager_v2D2Ev
quickshell:_ZN9QtWayland19zwlr_layer_shell_v110fromObjectEP19zwlr_layer_shell_v1
quickshell:_ZN9QtWayland19zwlr_layer_shell_v117get_layer_surfaceEP10wl_surfaceP9wl_outputjRK7QString
quickshell:_ZN9QtWayland19zwlr_layer_shell_v14initEP11wl_registryji
quickshell:_ZN9QtWayland19zwlr_layer_shell_v14initEP19zwlr_layer_shell_v1
quickshell:_ZN9QtWayland19zwlr_layer_shell_v17destroyEv
quickshell:_ZN9QtWayland19zwlr_layer_shell_v19interfaceEv
quickshell:_ZN9QtWayland19zwlr_layer_shell_v1C1EP11wl_registryji
quickshell:_ZN9QtWayland19zwlr_layer_shell_v1C1EP19zwlr_layer_shell_v1
quickshell:_ZN9QtWayland19zwlr_layer_shell_v1C1Ev
quickshell:_ZN9QtWayland19zwlr_layer_shell_v1C2EP11wl_registryji
quickshell:_ZN9QtWayland19zwlr_layer_shell_v1C2EP19zwlr_layer_shell_v1
quickshell:_ZN9QtWayland19zwlr_layer_shell_v1C2Ev
quickshell:_ZN9QtWayland19zwlr_layer_shell_v1D0Ev
quickshell:_ZN9QtWayland19zwlr_layer_shell_v1D1Ev
quickshell:_ZN9QtWayland19zwlr_layer_shell_v1D2Ev
quickshell:_ZN9QtWayland19zwp_linux_dmabuf_v110fromObjectEP19zwp_linux_dmabuf_v1
quickshell:_ZN9QtWayland19zwp_linux_dmabuf_v113create_paramsEv
quickshell:_ZN9QtWayland19zwp_linux_dmabuf_v113handle_formatEPvP19zwp_linux_dmabuf_v1j
quickshell:_ZN9QtWayland19zwp_linux_dmabuf_v113init_listenerEv
quickshell:_ZN9QtWayland19zwp_linux_dmabuf_v115handle_modifierEPvP19zwp_linux_dmabuf_v1jjj
quickshell:_ZN9QtWayland19zwp_linux_dmabuf_v120get_default_feedbackEv
quickshell:_ZN9QtWayland19zwp_linux_dmabuf_v120get_surface_feedbackEP10wl_surface
quickshell:_ZN9QtWayland19zwp_linux_dmabuf_v126zwp_linux_dmabuf_v1_formatEj
quickshell:_ZN9QtWayland19zwp_linux_dmabuf_v128zwp_linux_dmabuf_v1_modifierEjjj
quickshell:_ZN9QtWayland19zwp_linux_dmabuf_v130m_zwp_linux_dmabuf_v1_listenerE
quickshell:_ZN9QtWayland19zwp_linux_dmabuf_v14initEP11wl_registryji
quickshell:_ZN9QtWayland19zwp_linux_dmabuf_v14initEP19zwp_linux_dmabuf_v1
quickshell:_ZN9QtWayland19zwp_linux_dmabuf_v17destroyEv
quickshell:_ZN9QtWayland19zwp_linux_dmabuf_v19interfaceEv
quickshell:_ZN9QtWayland19zwp_linux_dmabuf_v1C1EP11wl_registryji
quickshell:_ZN9QtWayland19zwp_linux_dmabuf_v1C1EP19zwp_linux_dmabuf_v1
quickshell:_ZN9QtWayland19zwp_linux_dmabuf_v1C1Ev
quickshell:_ZN9QtWayland19zwp_linux_dmabuf_v1C2EP11wl_registryji
quickshell:_ZN9QtWayland19zwp_linux_dmabuf_v1C2EP19zwp_linux_dmabuf_v1
quickshell:_ZN9QtWayland19zwp_linux_dmabuf_v1C2Ev
quickshell:_ZN9QtWayland19zwp_linux_dmabuf_v1D0Ev
quickshell:_ZN9QtWayland19zwp_linux_dmabuf_v1D1Ev
quickshell:_ZN9QtWayland19zwp_linux_dmabuf_v1D2Ev
quickshell:_ZN9QtWayland20ext_idle_notifier_v110fromObjectEP20ext_idle_notifier_v1
quickshell:_ZN9QtWayland20ext_idle_notifier_v121get_idle_notificationEjP7wl_seat
quickshell:_ZN9QtWayland20ext_idle_notifier_v127get_input_idle_notificationEjP7wl_seat
quickshell:_ZN9QtWayland20ext_idle_notifier_v14initEP11wl_registryji
quickshell:_ZN9QtWayland20ext_idle_notifier_v14initEP20ext_idle_notifier_v1
quickshell:_ZN9QtWayland20ext_idle_notifier_v17destroyEv
quickshell:_ZN9QtWayland20ext_idle_notifier_v19interfaceEv
quickshell:_ZN9QtWayland20ext_idle_notifier_v1C1EP11wl_registryji
quickshell:_ZN9QtWayland20ext_idle_notifier_v1C1EP20ext_idle_notifier_v1
quickshell:_ZN9QtWayland20ext_idle_notifier_v1C1Ev
quickshell:_ZN9QtWayland20ext_idle_notifier_v1C2EP11wl_registryji
quickshell:_ZN9QtWayland20ext_idle_notifier_v1C2EP20ext_idle_notifier_v1
quickshell:_ZN9QtWayland20ext_idle_notifier_v1C2Ev
quickshell:_ZN9QtWayland20ext_idle_notifier_v1D0Ev
quickshell:_ZN9QtWayland20ext_idle_notifier_v1D1Ev
quickshell:_ZN9QtWayland20ext_idle_notifier_v1D2Ev
quickshell:_ZN9QtWayland21zwlr_layer_surface_v110fromObjectEP21zwlr_layer_surface_v1
quickshell:_ZN9QtWayland21zwlr_layer_surface_v110set_anchorEj
quickshell:_ZN9QtWayland21zwlr_layer_surface_v110set_marginEiiii
quickshell:_ZN9QtWayland21zwlr_layer_surface_v113ack_configureEj
quickshell:_ZN9QtWayland21zwlr_layer_surface_v113handle_closedEPvP21zwlr_layer_surface_v1
quickshell:_ZN9QtWayland21zwlr_layer_surface_v113init_listenerEv
quickshell:_ZN9QtWayland21zwlr_layer_surface_v116handle_configureEPvP21zwlr_layer_surface_v1jjj
quickshell:_ZN9QtWayland21zwlr_layer_surface_v118set_exclusive_edgeEj
quickshell:_ZN9QtWayland21zwlr_layer_surface_v118set_exclusive_zoneEi
quickshell:_ZN9QtWayland21zwlr_layer_surface_v126set_keyboard_interactivityEj
quickshell:_ZN9QtWayland21zwlr_layer_surface_v128zwlr_layer_surface_v1_closedEv
quickshell:_ZN9QtWayland21zwlr_layer_surface_v131zwlr_layer_surface_v1_configureEjjj
quickshell:_ZN9QtWayland21zwlr_layer_surface_v132m_zwlr_layer_surface_v1_listenerE
quickshell:_ZN9QtWayland21zwlr_layer_surface_v14initEP11wl_registryji
quickshell:_ZN9QtWayland21zwlr_layer_surface_v14initEP21zwlr_layer_surface_v1
quickshell:_ZN9QtWayland21zwlr_layer_surface_v17destroyEv
quickshell:_ZN9QtWayland21zwlr_layer_surface_v18set_sizeEjj
quickshell:_ZN9QtWayland21zwlr_layer_surface_v19get_popupEP9xdg_popup
quickshell:_ZN9QtWayland21zwlr_layer_surface_v19interfaceEv
quickshell:_ZN9QtWayland21zwlr_layer_surface_v19set_layerEj
quickshell:_ZN9QtWayland21zwlr_layer_surface_v1C1EP11wl_registryji
quickshell:_ZN9QtWayland21zwlr_layer_surface_v1C1EP21zwlr_layer_surface_v1
quickshell:_ZN9QtWayland21zwlr_layer_surface_v1C1Ev
quickshell:_ZN9QtWayland21zwlr_layer_surface_v1C2EP11wl_registryji
quickshell:_ZN9QtWayland21zwlr_layer_surface_v1C2EP21zwlr_layer_surface_v1
quickshell:_ZN9QtWayland21zwlr_layer_surface_v1C2Ev
quickshell:_ZN9QtWayland21zwlr_layer_surface_v1D0Ev
quickshell:_ZN9QtWayland21zwlr_layer_surface_v1D1Ev
quickshell:_ZN9QtWayland21zwlr_layer_surface_v1D2Ev
quickshell:_ZN9QtWayland21zwp_idle_inhibitor_v110fromObjectEP21zwp_idle_inhibitor_v1
quickshell:_ZN9QtWayland21zwp_idle_inhibitor_v14initEP11wl_registryji
quickshell:_ZN9QtWayland21zwp_idle_inhibitor_v14initEP21zwp_idle_inhibitor_v1
quickshell:_ZN9QtWayland21zwp_idle_inhibitor_v17destroyEv
quickshell:_ZN9QtWayland21zwp_idle_inhibitor_v19interfaceEv
quickshell:_ZN9QtWayland21zwp_idle_inhibitor_v1C1EP11wl_registryji
quickshell:_ZN9QtWayland21zwp_idle_inhibitor_v1C1EP21zwp_idle_inhibitor_v1
quickshell:_ZN9QtWayland21zwp_idle_inhibitor_v1C1Ev
quickshell:_ZN9QtWayland21zwp_idle_inhibitor_v1C2EP11wl_registryji
quickshell:_ZN9QtWayland21zwp_idle_inhibitor_v1C2EP21zwp_idle_inhibitor_v1
quickshell:_ZN9QtWayland21zwp_idle_inhibitor_v1C2Ev
quickshell:_ZN9QtWayland21zwp_idle_inhibitor_v1D0Ev
quickshell:_ZN9QtWayland21zwp_idle_inhibitor_v1D1Ev
quickshell:_ZN9QtWayland21zwp_idle_inhibitor_v1D2Ev
quickshell:_ZN9QtWayland22hyprland_focus_grab_v110fromObjectEP22hyprland_focus_grab_v1
quickshell:_ZN9QtWayland22hyprland_focus_grab_v111add_surfaceEP10wl_surface
quickshell:_ZN9QtWayland22hyprland_focus_grab_v113init_listenerEv
quickshell:_ZN9QtWayland22hyprland_focus_grab_v114handle_clearedEPvP22hyprland_focus_grab_v1
quickshell:_ZN9QtWayland22hyprland_focus_grab_v114remove_surfaceEP10wl_surface
quickshell:_ZN9QtWayland22hyprland_focus_grab_v130hyprland_focus_grab_v1_clearedEv
quickshell:_ZN9QtWayland22hyprland_focus_grab_v133m_hyprland_focus_grab_v1_listenerE
quickshell:_ZN9QtWayland22hyprland_focus_grab_v14initEP11wl_registryji
quickshell:_ZN9QtWayland22hyprland_focus_grab_v14initEP22hyprland_focus_grab_v1
quickshell:_ZN9QtWayland22hyprland_focus_grab_v16commitEv
quickshell:_ZN9QtWayland22hyprland_focus_grab_v17destroyEv
quickshell:_ZN9QtWayland22hyprland_focus_grab_v19interfaceEv
quickshell:_ZN9QtWayland22hyprland_focus_grab_v1C1EP11wl_registryji
quickshell:_ZN9QtWayland22hyprland_focus_grab_v1C1EP22hyprland_focus_grab_v1
quickshell:_ZN9QtWayland22hyprland_focus_grab_v1C1Ev
quickshell:_ZN9QtWayland22hyprland_focus_grab_v1C2EP11wl_registryji
quickshell:_ZN9QtWayland22hyprland_focus_grab_v1C2EP22hyprland_focus_grab_v1
quickshell:_ZN9QtWayland22hyprland_focus_grab_v1C2Ev
quickshell:_ZN9QtWayland22hyprland_focus_grab_v1D0Ev
quickshell:_ZN9QtWayland22hyprland_focus_grab_v1D1Ev
quickshell:_ZN9QtWayland22hyprland_focus_grab_v1D2Ev
quickshell:_ZN9QtWayland23ext_workspace_handle_v110deactivateEv
quickshell:_ZN9QtWayland23ext_workspace_handle_v110fromObjectEP23ext_workspace_handle_v1
quickshell:_ZN9QtWayland23ext_workspace_handle_v111handle_nameEPvP23ext_workspace_handle_v1PKc
quickshell:_ZN9QtWayland23ext_workspace_handle_v112handle_stateEPvP23ext_workspace_handle_v1j
quickshell:_ZN9QtWayland23ext_workspace_handle_v113init_listenerEv
quickshell:_ZN9QtWayland23ext_workspace_handle_v114handle_removedEPvP23ext_workspace_handle_v1
quickshell:_ZN9QtWayland23ext_workspace_handle_v118handle_coordinatesEPvP23ext_workspace_handle_v1P8wl_array
quickshell:_ZN9QtWayland23ext_workspace_handle_v119handle_capabilitiesEPvP23ext_workspace_handle_v1j
quickshell:_ZN9QtWayland23ext_workspace_handle_v126ext_workspace_handle_v1_idERK7QString
quickshell:_ZN9QtWayland23ext_workspace_handle_v128ext_workspace_handle_v1_nameERK7QString
quickshell:_ZN9QtWayland23ext_workspace_handle_v129ext_workspace_handle_v1_stateEj
quickshell:_ZN9QtWayland23ext_workspace_handle_v131ext_workspace_handle_v1_removedEv
quickshell:_ZN9QtWayland23ext_workspace_handle_v134m_ext_workspace_handle_v1_listenerE
quickshell:_ZN9QtWayland23ext_workspace_handle_v135ext_workspace_handle_v1_coordinatesEP8wl_array
quickshell:_ZN9QtWayland23ext_workspace_handle_v136ext_workspace_handle_v1_capabilitiesEj
quickshell:_ZN9QtWayland23ext_workspace_handle_v14initEP11wl_registryji
quickshell:_ZN9QtWayland23ext_workspace_handle_v14initEP23ext_workspace_handle_v1
quickshell:_ZN9QtWayland23ext_workspace_handle_v16assignEP29ext_workspace_group_handle_v1
quickshell:_ZN9QtWayland23ext_workspace_handle_v16removeEv
quickshell:_ZN9QtWayland23ext_workspace_handle_v17destroyEv
quickshell:_ZN9QtWayland23ext_workspace_handle_v18activateEv
quickshell:_ZN9QtWayland23ext_workspace_handle_v19handle_idEPvP23ext_workspace_handle_v1PKc
quickshell:_ZN9QtWayland23ext_workspace_handle_v19interfaceEv
quickshell:_ZN9QtWayland23ext_workspace_handle_v1C1EP11wl_registryji
quickshell:_ZN9QtWayland23ext_workspace_handle_v1C1EP23ext_workspace_handle_v1
quickshell:_ZN9QtWayland23ext_workspace_handle_v1C1Ev
quickshell:_ZN9QtWayland23ext_workspace_handle_v1C2EP11wl_registryji
quickshell:_ZN9QtWayland23ext_workspace_handle_v1C2EP23ext_workspace_handle_v1
quickshell:_ZN9QtWayland23ext_workspace_handle_v1C2Ev
quickshell:_ZN9QtWayland23ext_workspace_handle_v1D0Ev
quickshell:_ZN9QtWayland23ext_workspace_handle_v1D1Ev
quickshell:_ZN9QtWayland23ext_workspace_handle_v1D2Ev
quickshell:_ZN9QtWayland24ext_idle_notification_v110fromObjectEP24ext_idle_notification_v1
quickshell:_ZN9QtWayland24ext_idle_notification_v112handle_idledEPvP24ext_idle_notification_v1
quickshell:_ZN9QtWayland24ext_idle_notification_v113init_listenerEv
quickshell:_ZN9QtWayland24ext_idle_notification_v114handle_resumedEPvP24ext_idle_notification_v1
quickshell:_ZN9QtWayland24ext_idle_notification_v130ext_idle_notification_v1_idledEv
quickshell:_ZN9QtWayland24ext_idle_notification_v132ext_idle_notification_v1_resumedEv
quickshell:_ZN9QtWayland24ext_idle_notification_v135m_ext_idle_notification_v1_listenerE
quickshell:_ZN9QtWayland24ext_idle_notification_v14initEP11wl_registryji
quickshell:_ZN9QtWayland24ext_idle_notification_v14initEP24ext_idle_notification_v1
quickshell:_ZN9QtWayland24ext_idle_notification_v17destroyEv
quickshell:_ZN9QtWayland24ext_idle_notification_v19interfaceEv
quickshell:_ZN9QtWayland24ext_idle_notification_v1C1EP11wl_registryji
quickshell:_ZN9QtWayland24ext_idle_notification_v1C1EP24ext_idle_notification_v1
quickshell:_ZN9QtWayland24ext_idle_notification_v1C1Ev
quickshell:_ZN9QtWayland24ext_idle_notification_v1C2EP11wl_registryji
quickshell:_ZN9QtWayland24ext_idle_notification_v1C2EP24ext_idle_notification_v1
quickshell:_ZN9QtWayland24ext_idle_notification_v1C2Ev
quickshell:_ZN9QtWayland24ext_idle_notification_v1D0Ev
quickshell:_ZN9QtWayland24ext_idle_notification_v1D1Ev
quickshell:_ZN9QtWayland24ext_idle_notification_v1D2Ev
quickshell:_ZN9QtWayland24ext_workspace_manager_v110fromObjectEP24ext_workspace_manager_v1
quickshell:_ZN9QtWayland24ext_workspace_manager_v111handle_doneEPvP24ext_workspace_manager_v1
quickshell:_ZN9QtWayland24ext_workspace_manager_v113init_listenerEv
quickshell:_ZN9QtWayland24ext_workspace_manager_v115handle_finishedEPvP24ext_workspace_manager_v1
quickshell:_ZN9QtWayland24ext_workspace_manager_v116handle_workspaceEPvP24ext_workspace_manager_v1P23ext_workspace_handle_v1
quickshell:_ZN9QtWayland24ext_workspace_manager_v122handle_workspace_groupEPvP24ext_workspace_manager_v1P29ext_workspace_group_handle_v1
quickshell:_ZN9QtWayland24ext_workspace_manager_v129ext_workspace_manager_v1_doneEv
quickshell:_ZN9QtWayland24ext_workspace_manager_v133ext_workspace_manager_v1_finishedEv
quickshell:_ZN9QtWayland24ext_workspace_manager_v134ext_workspace_manager_v1_workspaceEP23ext_workspace_handle_v1
quickshell:_ZN9QtWayland24ext_workspace_manager_v135m_ext_workspace_manager_v1_listenerE
quickshell:_ZN9QtWayland24ext_workspace_manager_v140ext_workspace_manager_v1_workspace_groupEP29ext_workspace_group_handle_v1
quickshell:_ZN9QtWayland24ext_workspace_manager_v14initEP11wl_registryji
quickshell:_ZN9QtWayland24ext_workspace_manager_v14initEP24ext_workspace_manager_v1
quickshell:_ZN9QtWayland24ext_workspace_manager_v14stopEv
quickshell:_ZN9QtWayland24ext_workspace_manager_v16commitEv
quickshell:_ZN9QtWayland24ext_workspace_manager_v19interfaceEv
quickshell:_ZN9QtWayland24ext_workspace_manager_v1C1EP11wl_registryji
quickshell:_ZN9QtWayland24ext_workspace_manager_v1C1EP24ext_workspace_manager_v1
quickshell:_ZN9QtWayland24ext_workspace_manager_v1C1Ev
quickshell:_ZN9QtWayland24ext_workspace_manager_v1C2EP11wl_registryji
quickshell:_ZN9QtWayland24ext_workspace_manager_v1C2EP24ext_workspace_manager_v1
quickshell:_ZN9QtWayland24ext_workspace_manager_v1C2Ev
quickshell:_ZN9QtWayland24ext_workspace_manager_v1D0Ev
quickshell:_ZN9QtWayland24ext_workspace_manager_v1D1Ev
quickshell:_ZN9QtWayland24ext_workspace_manager_v1D2Ev
quickshell:_ZN9QtWayland24zwlr_screencopy_frame_v110fromObjectEP24zwlr_screencopy_frame_v1
quickshell:_ZN9QtWayland24zwlr_screencopy_frame_v112handle_flagsEPvP24zwlr_screencopy_frame_v1j
quickshell:_ZN9QtWayland24zwlr_screencopy_frame_v112handle_readyEPvP24zwlr_screencopy_frame_v1jjj
quickshell:_ZN9QtWayland24zwlr_screencopy_frame_v113handle_bufferEPvP24zwlr_screencopy_frame_v1jjjj
quickshell:_ZN9QtWayland24zwlr_screencopy_frame_v113handle_damageEPvP24zwlr_screencopy_frame_v1jjjj
quickshell:_ZN9QtWayland24zwlr_screencopy_frame_v113handle_failedEPvP24zwlr_screencopy_frame_v1
quickshell:_ZN9QtWayland24zwlr_screencopy_frame_v113init_listenerEv
quickshell:_ZN9QtWayland24zwlr_screencopy_frame_v116copy_with_damageEP9wl_buffer
quickshell:_ZN9QtWayland24zwlr_screencopy_frame_v118handle_buffer_doneEPvP24zwlr_screencopy_frame_v1
quickshell:_ZN9QtWayland24zwlr_screencopy_frame_v119handle_linux_dmabufEPvP24zwlr_screencopy_frame_v1jjj
quickshell:_ZN9QtWayland24zwlr_screencopy_frame_v130zwlr_screencopy_frame_v1_flagsEj
quickshell:_ZN9QtWayland24zwlr_screencopy_frame_v130zwlr_screencopy_frame_v1_readyEjjj
quickshell:_ZN9QtWayland24zwlr_screencopy_frame_v131zwlr_screencopy_frame_v1_bufferEjjjj
quickshell:_ZN9QtWayland24zwlr_screencopy_frame_v131zwlr_screencopy_frame_v1_damageEjjjj
quickshell:_ZN9QtWayland24zwlr_screencopy_frame_v131zwlr_screencopy_frame_v1_failedEv
quickshell:_ZN9QtWayland24zwlr_screencopy_frame_v135m_zwlr_screencopy_frame_v1_listenerE
quickshell:_ZN9QtWayland24zwlr_screencopy_frame_v136zwlr_screencopy_frame_v1_buffer_doneEv
quickshell:_ZN9QtWayland24zwlr_screencopy_frame_v137zwlr_screencopy_frame_v1_linux_dmabufEjjj
quickshell:_ZN9QtWayland24zwlr_screencopy_frame_v14copyEP9wl_buffer
quickshell:_ZN9QtWayland24zwlr_screencopy_frame_v14initEP11wl_registryji
quickshell:_ZN9QtWayland24zwlr_screencopy_frame_v14initEP24zwlr_screencopy_frame_v1
quickshell:_ZN9QtWayland24zwlr_screencopy_frame_v17destroyEv
quickshell:_ZN9QtWayland24zwlr_screencopy_frame_v19interfaceEv
quickshell:_ZN9QtWayland24zwlr_screencopy_frame_v1C1EP11wl_registryji
quickshell:_ZN9QtWayland24zwlr_screencopy_frame_v1C1EP24zwlr_screencopy_frame_v1
quickshell:_ZN9QtWayland24zwlr_screencopy_frame_v1C1Ev
quickshell:_ZN9QtWayland24zwlr_screencopy_frame_v1C2EP11wl_registryji
quickshell:_ZN9QtWayland24zwlr_screencopy_frame_v1C2EP24zwlr_screencopy_frame_v1
quickshell:_ZN9QtWayland24zwlr_screencopy_frame_v1C2Ev
quickshell:_ZN9QtWayland24zwlr_screencopy_frame_v1D0Ev
quickshell:_ZN9QtWayland24zwlr_screencopy_frame_v1D1Ev
quickshell:_ZN9QtWayland24zwlr_screencopy_frame_v1D2Ev
quickshell:_ZN9QtWayland26zwlr_screencopy_manager_v110fromObjectEP26zwlr_screencopy_manager_v1
quickshell:_ZN9QtWayland26zwlr_screencopy_manager_v114capture_outputEiP9wl_output
quickshell:_ZN9QtWayland26zwlr_screencopy_manager_v121capture_output_regionEiP9wl_outputiiii
quickshell:_ZN9QtWayland26zwlr_screencopy_manager_v14initEP11wl_registryji
quickshell:_ZN9QtWayland26zwlr_screencopy_manager_v14initEP26zwlr_screencopy_manager_v1
quickshell:_ZN9QtWayland26zwlr_screencopy_manager_v17destroyEv
quickshell:_ZN9QtWayland26zwlr_screencopy_manager_v19interfaceEv
quickshell:_ZN9QtWayland26zwlr_screencopy_manager_v1C1EP11wl_registryji
quickshell:_ZN9QtWayland26zwlr_screencopy_manager_v1C1EP26zwlr_screencopy_manager_v1
quickshell:_ZN9QtWayland26zwlr_screencopy_manager_v1C1Ev
quickshell:_ZN9QtWayland26zwlr_screencopy_manager_v1C2EP11wl_registryji
quickshell:_ZN9QtWayland26zwlr_screencopy_manager_v1C2EP26zwlr_screencopy_manager_v1
quickshell:_ZN9QtWayland26zwlr_screencopy_manager_v1C2Ev
quickshell:_ZN9QtWayland26zwlr_screencopy_manager_v1D0Ev
quickshell:_ZN9QtWayland26zwlr_screencopy_manager_v1D1Ev
quickshell:_ZN9QtWayland26zwlr_screencopy_manager_v1D2Ev
quickshell:_ZN9QtWayland26zwp_linux_buffer_params_v110fromObjectEP26zwp_linux_buffer_params_v1
quickshell:_ZN9QtWayland26zwp_linux_buffer_params_v112create_immedEiijj
quickshell:_ZN9QtWayland26zwp_linux_buffer_params_v113handle_failedEPvP26zwp_linux_buffer_params_v1
quickshell:_ZN9QtWayland26zwp_linux_buffer_params_v113init_listenerEv
quickshell:_ZN9QtWayland26zwp_linux_buffer_params_v114handle_createdEPvP26zwp_linux_buffer_params_v1P9wl_buffer
quickshell:_ZN9QtWayland26zwp_linux_buffer_params_v133zwp_linux_buffer_params_v1_failedEv
quickshell:_ZN9QtWayland26zwp_linux_buffer_params_v134zwp_linux_buffer_params_v1_createdEP9wl_buffer
quickshell:_ZN9QtWayland26zwp_linux_buffer_params_v137m_zwp_linux_buffer_params_v1_listenerE
quickshell:_ZN9QtWayland26zwp_linux_buffer_params_v13addEijjjjj
quickshell:_ZN9QtWayland26zwp_linux_buffer_params_v14initEP11wl_registryji
quickshell:_ZN9QtWayland26zwp_linux_buffer_params_v14initEP26zwp_linux_buffer_params_v1
quickshell:_ZN9QtWayland26zwp_linux_buffer_params_v16createEiijj
quickshell:_ZN9QtWayland26zwp_linux_buffer_params_v17destroyEv
quickshell:_ZN9QtWayland26zwp_linux_buffer_params_v19interfaceEv
quickshell:_ZN9QtWayland26zwp_linux_buffer_params_v1C1EP11wl_registryji
quickshell:_ZN9QtWayland26zwp_linux_buffer_params_v1C1EP26zwp_linux_buffer_params_v1
quickshell:_ZN9QtWayland26zwp_linux_buffer_params_v1C1Ev
quickshell:_ZN9QtWayland26zwp_linux_buffer_params_v1C2EP11wl_registryji
quickshell:_ZN9QtWayland26zwp_linux_buffer_params_v1C2EP26zwp_linux_buffer_params_v1
quickshell:_ZN9QtWayland26zwp_linux_buffer_params_v1C2Ev
quickshell:_ZN9QtWayland26zwp_linux_buffer_params_v1D0Ev
quickshell:_ZN9QtWayland26zwp_linux_buffer_params_v1D1Ev
quickshell:_ZN9QtWayland26zwp_linux_buffer_params_v1D2Ev
quickshell:_ZN9QtWayland27ext_image_capture_source_v110fromObjectEP27ext_image_capture_source_v1
quickshell:_ZN9QtWayland27ext_image_capture_source_v14initEP11wl_registryji
quickshell:_ZN9QtWayland27ext_image_capture_source_v14initEP27ext_image_capture_source_v1
quickshell:_ZN9QtWayland27ext_image_capture_source_v17destroyEv
quickshell:_ZN9QtWayland27ext_image_capture_source_v19interfaceEv
quickshell:_ZN9QtWayland27ext_image_capture_source_v1C1EP11wl_registryji
quickshell:_ZN9QtWayland27ext_image_capture_source_v1C1EP27ext_image_capture_source_v1
quickshell:_ZN9QtWayland27ext_image_capture_source_v1C1Ev
quickshell:_ZN9QtWayland27ext_image_capture_source_v1C2EP11wl_registryji
quickshell:_ZN9QtWayland27ext_image_capture_source_v1C2EP27ext_image_capture_source_v1
quickshell:_ZN9QtWayland27ext_image_capture_source_v1C2Ev
quickshell:_ZN9QtWayland27ext_image_capture_source_v1D0Ev
quickshell:_ZN9QtWayland27ext_image_capture_source_v1D1Ev
quickshell:_ZN9QtWayland27ext_image_capture_source_v1D2Ev
quickshell:_ZN9QtWayland27ext_session_lock_manager_v110fromObjectEP27ext_session_lock_manager_v1
quickshell:_ZN9QtWayland27ext_session_lock_manager_v14initEP11wl_registryji
quickshell:_ZN9QtWayland27ext_session_lock_manager_v14initEP27ext_session_lock_manager_v1
quickshell:_ZN9QtWayland27ext_session_lock_manager_v14lockEv
quickshell:_ZN9QtWayland27ext_session_lock_manager_v17destroyEv
quickshell:_ZN9QtWayland27ext_session_lock_manager_v19interfaceEv
quickshell:_ZN9QtWayland27ext_session_lock_manager_v1C1EP11wl_registryji
quickshell:_ZN9QtWayland27ext_session_lock_manager_v1C1EP27ext_session_lock_manager_v1
quickshell:_ZN9QtWayland27ext_session_lock_manager_v1C1Ev
quickshell:_ZN9QtWayland27ext_session_lock_manager_v1C2EP11wl_registryji
quickshell:_ZN9QtWayland27ext_session_lock_manager_v1C2EP27ext_session_lock_manager_v1
quickshell:_ZN9QtWayland27ext_session_lock_manager_v1C2Ev
quickshell:_ZN9QtWayland27ext_session_lock_manager_v1D0Ev
quickshell:_ZN9QtWayland27ext_session_lock_manager_v1D1Ev
quickshell:_ZN9QtWayland27ext_session_lock_manager_v1D2Ev
quickshell:_ZN9QtWayland27ext_session_lock_surface_v110fromObjectEP27ext_session_lock_surface_v1
quickshell:_ZN9QtWayland27ext_session_lock_surface_v113ack_configureEj
quickshell:_ZN9QtWayland27ext_session_lock_surface_v113init_listenerEv
quickshell:_ZN9QtWayland27ext_session_lock_surface_v116handle_configureEPvP27ext_session_lock_surface_v1jjj
quickshell:_ZN9QtWayland27ext_session_lock_surface_v137ext_session_lock_surface_v1_configureEjjj
quickshell:_ZN9QtWayland27ext_session_lock_surface_v138m_ext_session_lock_surface_v1_listenerE
quickshell:_ZN9QtWayland27ext_session_lock_surface_v14initEP11wl_registryji
quickshell:_ZN9QtWayland27ext_session_lock_surface_v14initEP27ext_session_lock_surface_v1
quickshell:_ZN9QtWayland27ext_session_lock_surface_v17destroyEv
quickshell:_ZN9QtWayland27ext_session_lock_surface_v19interfaceEv
quickshell:_ZN9QtWayland27ext_session_lock_surface_v1C1EP11wl_registryji
quickshell:_ZN9QtWayland27ext_session_lock_surface_v1C1EP27ext_session_lock_surface_v1
quickshell:_ZN9QtWayland27ext_session_lock_surface_v1C1Ev
quickshell:_ZN9QtWayland27ext_session_lock_surface_v1C2EP11wl_registryji
quickshell:_ZN9QtWayland27ext_session_lock_surface_v1C2EP27ext_session_lock_surface_v1
quickshell:_ZN9QtWayland27ext_session_lock_surface_v1C2Ev
quickshell:_ZN9QtWayland27ext_session_lock_surface_v1D0Ev
quickshell:_ZN9QtWayland27ext_session_lock_surface_v1D1Ev
quickshell:_ZN9QtWayland27ext_session_lock_surface_v1D2Ev
quickshell:_ZN9QtWayland27hyprland_global_shortcut_v110fromObjectEP27hyprland_global_shortcut_v1
quickshell:_ZN9QtWayland27hyprland_global_shortcut_v113init_listenerEv
quickshell:_ZN9QtWayland27hyprland_global_shortcut_v114handle_pressedEPvP27hyprland_global_shortcut_v1jjj
quickshell:_ZN9QtWayland27hyprland_global_shortcut_v115handle_releasedEPvP27hyprland_global_shortcut_v1jjj
quickshell:_ZN9QtWayland27hyprland_global_shortcut_v135hyprland_global_shortcut_v1_pressedEjjj
quickshell:_ZN9QtWayland27hyprland_global_shortcut_v136hyprland_global_shortcut_v1_releasedEjjj
quickshell:_ZN9QtWayland27hyprland_global_shortcut_v138m_hyprland_global_shortcut_v1_listenerE
quickshell:_ZN9QtWayland27hyprland_global_shortcut_v14initEP11wl_registryji
quickshell:_ZN9QtWayland27hyprland_global_shortcut_v14initEP27hyprland_global_shortcut_v1
quickshell:_ZN9QtWayland27hyprland_global_shortcut_v17destroyEv
quickshell:_ZN9QtWayland27hyprland_global_shortcut_v19interfaceEv
quickshell:_ZN9QtWayland27hyprland_global_shortcut_v1C1EP11wl_registryji
quickshell:_ZN9QtWayland27hyprland_global_shortcut_v1C1EP27hyprland_global_shortcut_v1
quickshell:_ZN9QtWayland27hyprland_global_shortcut_v1C1Ev
quickshell:_ZN9QtWayland27hyprland_global_shortcut_v1C2EP11wl_registryji
quickshell:_ZN9QtWayland27hyprland_global_shortcut_v1C2EP27hyprland_global_shortcut_v1
quickshell:_ZN9QtWayland27hyprland_global_shortcut_v1C2Ev
quickshell:_ZN9QtWayland27hyprland_global_shortcut_v1D0Ev
quickshell:_ZN9QtWayland27hyprland_global_shortcut_v1D1Ev
quickshell:_ZN9QtWayland27hyprland_global_shortcut_v1D2Ev
quickshell:_ZN9QtWayland27hyprland_surface_manager_v110fromObjectEP27hyprland_surface_manager_v1
quickshell:_ZN9QtWayland27hyprland_surface_manager_v120get_hyprland_surfaceEP10wl_surface
quickshell:_ZN9QtWayland27hyprland_surface_manager_v14initEP11wl_registryji
quickshell:_ZN9QtWayland27hyprland_surface_manager_v14initEP27hyprland_surface_manager_v1
quickshell:_ZN9QtWayland27hyprland_surface_manager_v17destroyEv
quickshell:_ZN9QtWayland27hyprland_surface_manager_v19interfaceEv
quickshell:_ZN9QtWayland27hyprland_surface_manager_v1C1EP11wl_registryji
quickshell:_ZN9QtWayland27hyprland_surface_manager_v1C1EP27hyprland_surface_manager_v1
quickshell:_ZN9QtWayland27hyprland_surface_manager_v1C1Ev
quickshell:_ZN9QtWayland27hyprland_surface_manager_v1C2EP11wl_registryji
quickshell:_ZN9QtWayland27hyprland_surface_manager_v1C2EP27hyprland_surface_manager_v1
quickshell:_ZN9QtWayland27hyprland_surface_manager_v1C2Ev
quickshell:_ZN9QtWayland27hyprland_surface_manager_v1D0Ev
quickshell:_ZN9QtWayland27hyprland_surface_manager_v1D1Ev
quickshell:_ZN9QtWayland27hyprland_surface_manager_v1D2Ev
quickshell:_ZN9QtWayland27zwp_idle_inhibit_manager_v110fromObjectEP27zwp_idle_inhibit_manager_v1
quickshell:_ZN9QtWayland27zwp_idle_inhibit_manager_v116create_inhibitorEP10wl_surface
quickshell:_ZN9QtWayland27zwp_idle_inhibit_manager_v14initEP11wl_registryji
quickshell:_ZN9QtWayland27zwp_idle_inhibit_manager_v14initEP27zwp_idle_inhibit_manager_v1
quickshell:_ZN9QtWayland27zwp_idle_inhibit_manager_v17destroyEv
quickshell:_ZN9QtWayland27zwp_idle_inhibit_manager_v19interfaceEv
quickshell:_ZN9QtWayland27zwp_idle_inhibit_manager_v1C1EP11wl_registryji
quickshell:_ZN9QtWayland27zwp_idle_inhibit_manager_v1C1EP27zwp_idle_inhibit_manager_v1
quickshell:_ZN9QtWayland27zwp_idle_inhibit_manager_v1C1Ev
quickshell:_ZN9QtWayland27zwp_idle_inhibit_manager_v1C2EP11wl_registryji
quickshell:_ZN9QtWayland27zwp_idle_inhibit_manager_v1C2EP27zwp_idle_inhibit_manager_v1
quickshell:_ZN9QtWayland27zwp_idle_inhibit_manager_v1C2Ev
quickshell:_ZN9QtWayland27zwp_idle_inhibit_manager_v1D0Ev
quickshell:_ZN9QtWayland27zwp_idle_inhibit_manager_v1D1Ev
quickshell:_ZN9QtWayland27zwp_idle_inhibit_manager_v1D2Ev
quickshell:_ZN9QtWayland28zwp_linux_dmabuf_feedback_v110fromObjectEP28zwp_linux_dmabuf_feedback_v1
quickshell:_ZN9QtWayland28zwp_linux_dmabuf_feedback_v111handle_doneEPvP28zwp_linux_dmabuf_feedback_v1
quickshell:_ZN9QtWayland28zwp_linux_dmabuf_feedback_v113init_listenerEv
quickshell:_ZN9QtWayland28zwp_linux_dmabuf_feedback_v118handle_main_deviceEPvP28zwp_linux_dmabuf_feedback_v1P8wl_array
quickshell:_ZN9QtWayland28zwp_linux_dmabuf_feedback_v119handle_format_tableEPvP28zwp_linux_dmabuf_feedback_v1ij
quickshell:_ZN9QtWayland28zwp_linux_dmabuf_feedback_v119handle_tranche_doneEPvP28zwp_linux_dmabuf_feedback_v1
quickshell:_ZN9QtWayland28zwp_linux_dmabuf_feedback_v120handle_tranche_flagsEPvP28zwp_linux_dmabuf_feedback_v1j
quickshell:_ZN9QtWayland28zwp_linux_dmabuf_feedback_v122handle_tranche_formatsEPvP28zwp_linux_dmabuf_feedback_v1P8wl_array
quickshell:_ZN9QtWayland28zwp_linux_dmabuf_feedback_v128handle_tranche_target_deviceEPvP28zwp_linux_dmabuf_feedback_v1P8wl_array
quickshell:_ZN9QtWayland28zwp_linux_dmabuf_feedback_v133zwp_linux_dmabuf_feedback_v1_doneEv
quickshell:_ZN9QtWayland28zwp_linux_dmabuf_feedback_v139m_zwp_linux_dmabuf_feedback_v1_listenerE
quickshell:_ZN9QtWayland28zwp_linux_dmabuf_feedback_v140zwp_linux_dmabuf_feedback_v1_main_deviceEP8wl_array
quickshell:_ZN9QtWayland28zwp_linux_dmabuf_feedback_v141zwp_linux_dmabuf_feedback_v1_format_tableEij
quickshell:_ZN9QtWayland28zwp_linux_dmabuf_feedback_v141zwp_linux_dmabuf_feedback_v1_tranche_doneEv
quickshell:_ZN9QtWayland28zwp_linux_dmabuf_feedback_v142zwp_linux_dmabuf_feedback_v1_tranche_flagsEj
quickshell:_ZN9QtWayland28zwp_linux_dmabuf_feedback_v144zwp_linux_dmabuf_feedback_v1_tranche_formatsEP8wl_array
quickshell:_ZN9QtWayland28zwp_linux_dmabuf_feedback_v14initEP11wl_registryji
quickshell:_ZN9QtWayland28zwp_linux_dmabuf_feedback_v14initEP28zwp_linux_dmabuf_feedback_v1
quickshell:_ZN9QtWayland28zwp_linux_dmabuf_feedback_v150zwp_linux_dmabuf_feedback_v1_tranche_target_deviceEP8wl_array
quickshell:_ZN9QtWayland28zwp_linux_dmabuf_feedback_v17destroyEv
quickshell:_ZN9QtWayland28zwp_linux_dmabuf_feedback_v19interfaceEv
quickshell:_ZN9QtWayland28zwp_linux_dmabuf_feedback_v1C1EP11wl_registryji
quickshell:_ZN9QtWayland28zwp_linux_dmabuf_feedback_v1C1EP28zwp_linux_dmabuf_feedback_v1
quickshell:_ZN9QtWayland28zwp_linux_dmabuf_feedback_v1C1Ev
quickshell:_ZN9QtWayland28zwp_linux_dmabuf_feedback_v1C2EP11wl_registryji
quickshell:_ZN9QtWayland28zwp_linux_dmabuf_feedback_v1C2EP28zwp_linux_dmabuf_feedback_v1
quickshell:_ZN9QtWayland28zwp_linux_dmabuf_feedback_v1C2Ev
quickshell:_ZN9QtWayland28zwp_linux_dmabuf_feedback_v1D0Ev
quickshell:_ZN9QtWayland28zwp_linux_dmabuf_feedback_v1D1Ev
quickshell:_ZN9QtWayland28zwp_linux_dmabuf_feedback_v1D2Ev
quickshell:_ZN9QtWayland29ext_workspace_group_handle_v110fromObjectEP29ext_workspace_group_handle_v1
quickshell:_ZN9QtWayland29ext_workspace_group_handle_v113init_listenerEv
quickshell:_ZN9QtWayland29ext_workspace_group_handle_v114handle_removedEPvP29ext_workspace_group_handle_v1
quickshell:_ZN9QtWayland29ext_workspace_group_handle_v116create_workspaceERK7QString
quickshell:_ZN9QtWayland29ext_workspace_group_handle_v119handle_capabilitiesEPvP29ext_workspace_group_handle_v1j
quickshell:_ZN9QtWayland29ext_workspace_group_handle_v119handle_output_enterEPvP29ext_workspace_group_handle_v1P9wl_output
quickshell:_ZN9QtWayland29ext_workspace_group_handle_v119handle_output_leaveEPvP29ext_workspace_group_handle_v1P9wl_output
quickshell:_ZN9QtWayland29ext_workspace_group_handle_v122handle_workspace_enterEPvP29ext_workspace_group_handle_v1P23ext_workspace_handle_v1
quickshell:_ZN9QtWayland29ext_workspace_group_handle_v122handle_workspace_leaveEPvP29ext_workspace_group_handle_v1P23ext_workspace_handle_v1
quickshell:_ZN9QtWayland29ext_workspace_group_handle_v137ext_workspace_group_handle_v1_removedEv
quickshell:_ZN9QtWayland29ext_workspace_group_handle_v140m_ext_workspace_group_handle_v1_listenerE
quickshell:_ZN9QtWayland29ext_workspace_group_handle_v142ext_workspace_group_handle_v1_capabilitiesEj
quickshell:_ZN9QtWayland29ext_workspace_group_handle_v142ext_workspace_group_handle_v1_output_enterEP9wl_output
quickshell:_ZN9QtWayland29ext_workspace_group_handle_v142ext_workspace_group_handle_v1_output_leaveEP9wl_output
quickshell:_ZN9QtWayland29ext_workspace_group_handle_v145ext_workspace_group_handle_v1_workspace_enterEP23ext_workspace_handle_v1
quickshell:_ZN9QtWayland29ext_workspace_group_handle_v145ext_workspace_group_handle_v1_workspace_leaveEP23ext_workspace_handle_v1
quickshell:_ZN9QtWayland29ext_workspace_group_handle_v14initEP11wl_registryji
quickshell:_ZN9QtWayland29ext_workspace_group_handle_v14initEP29ext_workspace_group_handle_v1
quickshell:_ZN9QtWayland29ext_workspace_group_handle_v17destroyEv
quickshell:_ZN9QtWayland29ext_workspace_group_handle_v19interfaceEv
quickshell:_ZN9QtWayland29ext_workspace_group_handle_v1C1EP11wl_registryji
quickshell:_ZN9QtWayland29ext_workspace_group_handle_v1C1EP29ext_workspace_group_handle_v1
quickshell:_ZN9QtWayland29ext_workspace_group_handle_v1C1Ev
quickshell:_ZN9QtWayland29ext_workspace_group_handle_v1C2EP11wl_registryji
quickshell:_ZN9QtWayland29ext_workspace_group_handle_v1C2EP29ext_workspace_group_handle_v1
quickshell:_ZN9QtWayland29ext_workspace_group_handle_v1C2Ev
quickshell:_ZN9QtWayland29ext_workspace_group_handle_v1D0Ev
quickshell:_ZN9QtWayland29ext_workspace_group_handle_v1D1Ev
quickshell:_ZN9QtWayland29ext_workspace_group_handle_v1D2Ev
quickshell:_ZN9QtWayland30hyprland_focus_grab_manager_v110fromObjectEP30hyprland_focus_grab_manager_v1
quickshell:_ZN9QtWayland30hyprland_focus_grab_manager_v111create_grabEv
quickshell:_ZN9QtWayland30hyprland_focus_grab_manager_v14initEP11wl_registryji
quickshell:_ZN9QtWayland30hyprland_focus_grab_manager_v14initEP30hyprland_focus_grab_manager_v1
quickshell:_ZN9QtWayland30hyprland_focus_grab_manager_v17destroyEv
quickshell:_ZN9QtWayland30hyprland_focus_grab_manager_v19interfaceEv
quickshell:_ZN9QtWayland30hyprland_focus_grab_manager_v1C1EP11wl_registryji
quickshell:_ZN9QtWayland30hyprland_focus_grab_manager_v1C1EP30hyprland_focus_grab_manager_v1
quickshell:_ZN9QtWayland30hyprland_focus_grab_manager_v1C1Ev
quickshell:_ZN9QtWayland30hyprland_focus_grab_manager_v1C2EP11wl_registryji
quickshell:_ZN9QtWayland30hyprland_focus_grab_manager_v1C2EP30hyprland_focus_grab_manager_v1
quickshell:_ZN9QtWayland30hyprland_focus_grab_manager_v1C2Ev
quickshell:_ZN9QtWayland30hyprland_focus_grab_manager_v1D0Ev
quickshell:_ZN9QtWayland30hyprland_focus_grab_manager_v1D1Ev
quickshell:_ZN9QtWayland30hyprland_focus_grab_manager_v1D2Ev
quickshell:_ZN9QtWayland31ext_image_copy_capture_frame_v110fromObjectEP31ext_image_copy_capture_frame_v1
quickshell:_ZN9QtWayland31ext_image_copy_capture_frame_v112handle_readyEPvP31ext_image_copy_capture_frame_v1
quickshell:_ZN9QtWayland31ext_image_copy_capture_frame_v113attach_bufferEP9wl_buffer
quickshell:_ZN9QtWayland31ext_image_copy_capture_frame_v113damage_bufferEiiii
quickshell:_ZN9QtWayland31ext_image_copy_capture_frame_v113handle_damageEPvP31ext_image_copy_capture_frame_v1iiii
quickshell:_ZN9QtWayland31ext_image_copy_capture_frame_v113handle_failedEPvP31ext_image_copy_capture_frame_v1j
quickshell:_ZN9QtWayland31ext_image_copy_capture_frame_v113init_listenerEv
quickshell:_ZN9QtWayland31ext_image_copy_capture_frame_v116handle_transformEPvP31ext_image_copy_capture_frame_v1j
quickshell:_ZN9QtWayland31ext_image_copy_capture_frame_v124handle_presentation_timeEPvP31ext_image_copy_capture_frame_v1jjj
quickshell:_ZN9QtWayland31ext_image_copy_capture_frame_v137ext_image_copy_capture_frame_v1_readyEv
quickshell:_ZN9QtWayland31ext_image_copy_capture_frame_v138ext_image_copy_capture_frame_v1_damageEiiii
quickshell:_ZN9QtWayland31ext_image_copy_capture_frame_v138ext_image_copy_capture_frame_v1_failedEj
quickshell:_ZN9QtWayland31ext_image_copy_capture_frame_v141ext_image_copy_capture_frame_v1_transformEj
quickshell:_ZN9QtWayland31ext_image_copy_capture_frame_v142m_ext_image_copy_capture_frame_v1_listenerE
quickshell:_ZN9QtWayland31ext_image_copy_capture_frame_v149ext_image_copy_capture_frame_v1_presentation_timeEjjj
quickshell:_ZN9QtWayland31ext_image_copy_capture_frame_v14initEP11wl_registryji
quickshell:_ZN9QtWayland31ext_image_copy_capture_frame_v14initEP31ext_image_copy_capture_frame_v1
quickshell:_ZN9QtWayland31ext_image_copy_capture_frame_v17captureEv
quickshell:_ZN9QtWayland31ext_image_copy_capture_frame_v17destroyEv
quickshell:_ZN9QtWayland31ext_image_copy_capture_frame_v19interfaceEv
quickshell:_ZN9QtWayland31ext_image_copy_capture_frame_v1C1EP11wl_registryji
quickshell:_ZN9QtWayland31ext_image_copy_capture_frame_v1C1EP31ext_image_copy_capture_frame_v1
quickshell:_ZN9QtWayland31ext_image_copy_capture_frame_v1C1Ev
quickshell:_ZN9QtWayland31ext_image_copy_capture_frame_v1C2EP11wl_registryji
quickshell:_ZN9QtWayland31ext_image_copy_capture_frame_v1C2EP31ext_image_copy_capture_frame_v1
quickshell:_ZN9QtWayland31ext_image_copy_capture_frame_v1C2Ev
quickshell:_ZN9QtWayland31ext_image_copy_capture_frame_v1D0Ev
quickshell:_ZN9QtWayland31ext_image_copy_capture_frame_v1D1Ev
quickshell:_ZN9QtWayland31ext_image_copy_capture_frame_v1D2Ev
quickshell:_ZN9QtWayland31zwlr_foreign_toplevel_handle_v110fromObjectEP31zwlr_foreign_toplevel_handle_v1
quickshell:_ZN9QtWayland31zwlr_foreign_toplevel_handle_v111handle_doneEPvP31zwlr_foreign_toplevel_handle_v1
quickshell:_ZN9QtWayland31zwlr_foreign_toplevel_handle_v112handle_stateEPvP31zwlr_foreign_toplevel_handle_v1P8wl_array
quickshell:_ZN9QtWayland31zwlr_foreign_toplevel_handle_v112handle_titleEPvP31zwlr_foreign_toplevel_handle_v1PKc
quickshell:_ZN9QtWayland31zwlr_foreign_toplevel_handle_v113handle_app_idEPvP31zwlr_foreign_toplevel_handle_v1PKc
quickshell:_ZN9QtWayland31zwlr_foreign_toplevel_handle_v113handle_closedEPvP31zwlr_foreign_toplevel_handle_v1
quickshell:_ZN9QtWayland31zwlr_foreign_toplevel_handle_v113handle_parentEPvP31zwlr_foreign_toplevel_handle_v1S3_
quickshell:_ZN9QtWayland31zwlr_foreign_toplevel_handle_v113init_listenerEv
quickshell:_ZN9QtWayland31zwlr_foreign_toplevel_handle_v113set_maximizedEv
quickshell:_ZN9QtWayland31zwlr_foreign_toplevel_handle_v113set_minimizedEv
quickshell:_ZN9QtWayland31zwlr_foreign_toplevel_handle_v113set_rectangleEP10wl_surfaceiiii
quickshell:_ZN9QtWayland31zwlr_foreign_toplevel_handle_v114set_fullscreenEP9wl_output
quickshell:_ZN9QtWayland31zwlr_foreign_toplevel_handle_v115unset_maximizedEv
quickshell:_ZN9QtWayland31zwlr_foreign_toplevel_handle_v115unset_minimizedEv
quickshell:_ZN9QtWayland31zwlr_foreign_toplevel_handle_v116unset_fullscreenEv
quickshell:_ZN9QtWayland31zwlr_foreign_toplevel_handle_v119handle_output_enterEPvP31zwlr_foreign_toplevel_handle_v1P9wl_output
quickshell:_ZN9QtWayland31zwlr_foreign_toplevel_handle_v119handle_output_leaveEPvP31zwlr_foreign_toplevel_handle_v1P9wl_output
quickshell:_ZN9QtWayland31zwlr_foreign_toplevel_handle_v136zwlr_foreign_toplevel_handle_v1_doneEv
quickshell:_ZN9QtWayland31zwlr_foreign_toplevel_handle_v137zwlr_foreign_toplevel_handle_v1_stateEP8wl_array
quickshell:_ZN9QtWayland31zwlr_foreign_toplevel_handle_v137zwlr_foreign_toplevel_handle_v1_titleERK7QString
quickshell:_ZN9QtWayland31zwlr_foreign_toplevel_handle_v138zwlr_foreign_toplevel_handle_v1_app_idERK7QString
quickshell:_ZN9QtWayland31zwlr_foreign_toplevel_handle_v138zwlr_foreign_toplevel_handle_v1_closedEv
quickshell:_ZN9QtWayland31zwlr_foreign_toplevel_handle_v138zwlr_foreign_toplevel_handle_v1_parentEP31zwlr_foreign_toplevel_handle_v1
quickshell:_ZN9QtWayland31zwlr_foreign_toplevel_handle_v142m_zwlr_foreign_toplevel_handle_v1_listenerE
quickshell:_ZN9QtWayland31zwlr_foreign_toplevel_handle_v144zwlr_foreign_toplevel_handle_v1_output_enterEP9wl_output
quickshell:_ZN9QtWayland31zwlr_foreign_toplevel_handle_v144zwlr_foreign_toplevel_handle_v1_output_leaveEP9wl_output
quickshell:_ZN9QtWayland31zwlr_foreign_toplevel_handle_v14initEP11wl_registryji
quickshell:_ZN9QtWayland31zwlr_foreign_toplevel_handle_v14initEP31zwlr_foreign_toplevel_handle_v1
quickshell:_ZN9QtWayland31zwlr_foreign_toplevel_handle_v15closeEv
quickshell:_ZN9QtWayland31zwlr_foreign_toplevel_handle_v17destroyEv
quickshell:_ZN9QtWayland31zwlr_foreign_toplevel_handle_v18activateEP7wl_seat
quickshell:_ZN9QtWayland31zwlr_foreign_toplevel_handle_v19interfaceEv
quickshell:_ZN9QtWayland31zwlr_foreign_toplevel_handle_v1C1EP11wl_registryji
quickshell:_ZN9QtWayland31zwlr_foreign_toplevel_handle_v1C1EP31zwlr_foreign_toplevel_handle_v1
quickshell:_ZN9QtWayland31zwlr_foreign_toplevel_handle_v1C1Ev
quickshell:_ZN9QtWayland31zwlr_foreign_toplevel_handle_v1C2EP11wl_registryji
quickshell:_ZN9QtWayland31zwlr_foreign_toplevel_handle_v1C2EP31zwlr_foreign_toplevel_handle_v1
quickshell:_ZN9QtWayland31zwlr_foreign_toplevel_handle_v1C2Ev
quickshell:_ZN9QtWayland31zwlr_foreign_toplevel_handle_v1D0Ev
quickshell:_ZN9QtWayland31zwlr_foreign_toplevel_handle_v1D1Ev
quickshell:_ZN9QtWayland31zwlr_foreign_toplevel_handle_v1D2Ev
quickshell:_ZN9QtWayland32ext_background_effect_manager_v110fromObjectEP32ext_background_effect_manager_v1
quickshell:_ZN9QtWayland32ext_background_effect_manager_v113init_listenerEv
quickshell:_ZN9QtWayland32ext_background_effect_manager_v119handle_capabilitiesEPvP32ext_background_effect_manager_v1j
quickshell:_ZN9QtWayland32ext_background_effect_manager_v121get_background_effectEP10wl_surface
quickshell:_ZN9QtWayland32ext_background_effect_manager_v143m_ext_background_effect_manager_v1_listenerE
quickshell:_ZN9QtWayland32ext_background_effect_manager_v145ext_background_effect_manager_v1_capabilitiesEj
quickshell:_ZN9QtWayland32ext_background_effect_manager_v14initEP11wl_registryji
quickshell:_ZN9QtWayland32ext_background_effect_manager_v14initEP32ext_background_effect_manager_v1
quickshell:_ZN9QtWayland32ext_background_effect_manager_v17destroyEv
quickshell:_ZN9QtWayland32ext_background_effect_manager_v19interfaceEv
quickshell:_ZN9QtWayland32ext_background_effect_manager_v1C1EP11wl_registryji
quickshell:_ZN9QtWayland32ext_background_effect_manager_v1C1EP32ext_background_effect_manager_v1
quickshell:_ZN9QtWayland32ext_background_effect_manager_v1C1Ev
quickshell:_ZN9QtWayland32ext_background_effect_manager_v1C2EP11wl_registryji
quickshell:_ZN9QtWayland32ext_background_effect_manager_v1C2EP32ext_background_effect_manager_v1
quickshell:_ZN9QtWayland32ext_background_effect_manager_v1C2Ev
quickshell:_ZN9QtWayland32ext_background_effect_manager_v1D0Ev
quickshell:_ZN9QtWayland32ext_background_effect_manager_v1D1Ev
quickshell:_ZN9QtWayland32ext_background_effect_manager_v1D2Ev
quickshell:_ZN9QtWayland32ext_background_effect_surface_v110fromObjectEP32ext_background_effect_surface_v1
quickshell:_ZN9QtWayland32ext_background_effect_surface_v115set_blur_regionEP9wl_region
quickshell:_ZN9QtWayland32ext_background_effect_surface_v14initEP11wl_registryji
quickshell:_ZN9QtWayland32ext_background_effect_surface_v14initEP32ext_background_effect_surface_v1
quickshell:_ZN9QtWayland32ext_background_effect_surface_v17destroyEv
quickshell:_ZN9QtWayland32ext_background_effect_surface_v19interfaceEv
quickshell:_ZN9QtWayland32ext_background_effect_surface_v1C1EP11wl_registryji
quickshell:_ZN9QtWayland32ext_background_effect_surface_v1C1EP32ext_background_effect_surface_v1
quickshell:_ZN9QtWayland32ext_background_effect_surface_v1C1Ev
quickshell:_ZN9QtWayland32ext_background_effect_surface_v1C2EP11wl_registryji
quickshell:_ZN9QtWayland32ext_background_effect_surface_v1C2EP32ext_background_effect_surface_v1
quickshell:_ZN9QtWayland32ext_background_effect_surface_v1C2Ev
quickshell:_ZN9QtWayland32ext_background_effect_surface_v1D0Ev
quickshell:_ZN9QtWayland32ext_background_effect_surface_v1D1Ev
quickshell:_ZN9QtWayland32ext_background_effect_surface_v1D2Ev
quickshell:_ZN9QtWayland32zwlr_foreign_toplevel_manager_v110fromObjectEP32zwlr_foreign_toplevel_manager_v1
quickshell:_ZN9QtWayland32zwlr_foreign_toplevel_manager_v113init_listenerEv
quickshell:_ZN9QtWayland32zwlr_foreign_toplevel_manager_v115handle_finishedEPvP32zwlr_foreign_toplevel_manager_v1
quickshell:_ZN9QtWayland32zwlr_foreign_toplevel_manager_v115handle_toplevelEPvP32zwlr_foreign_toplevel_manager_v1P31zwlr_foreign_toplevel_handle_v1
quickshell:_ZN9QtWayland32zwlr_foreign_toplevel_manager_v141zwlr_foreign_toplevel_manager_v1_finishedEv
quickshell:_ZN9QtWayland32zwlr_foreign_toplevel_manager_v141zwlr_foreign_toplevel_manager_v1_toplevelEP31zwlr_foreign_toplevel_handle_v1
quickshell:_ZN9QtWayland32zwlr_foreign_toplevel_manager_v143m_zwlr_foreign_toplevel_manager_v1_listenerE
quickshell:_ZN9QtWayland32zwlr_foreign_toplevel_manager_v14initEP11wl_registryji
quickshell:_ZN9QtWayland32zwlr_foreign_toplevel_manager_v14initEP32zwlr_foreign_toplevel_manager_v1
quickshell:_ZN9QtWayland32zwlr_foreign_toplevel_manager_v14stopEv
quickshell:_ZN9QtWayland32zwlr_foreign_toplevel_manager_v19interfaceEv
quickshell:_ZN9QtWayland32zwlr_foreign_toplevel_manager_v1C1EP11wl_registryji
quickshell:_ZN9QtWayland32zwlr_foreign_toplevel_manager_v1C1EP32zwlr_foreign_toplevel_manager_v1
quickshell:_ZN9QtWayland32zwlr_foreign_toplevel_manager_v1C1Ev
quickshell:_ZN9QtWayland32zwlr_foreign_toplevel_manager_v1C2EP11wl_registryji
quickshell:_ZN9QtWayland32zwlr_foreign_toplevel_manager_v1C2EP32zwlr_foreign_toplevel_manager_v1
quickshell:_ZN9QtWayland32zwlr_foreign_toplevel_manager_v1C2Ev
quickshell:_ZN9QtWayland32zwlr_foreign_toplevel_manager_v1D0Ev
quickshell:_ZN9QtWayland32zwlr_foreign_toplevel_manager_v1D1Ev
quickshell:_ZN9QtWayland32zwlr_foreign_toplevel_manager_v1D2Ev
quickshell:_ZN9QtWayland33ext_image_copy_capture_manager_v110fromObjectEP33ext_image_copy_capture_manager_v1
quickshell:_ZN9QtWayland33ext_image_copy_capture_manager_v114create_sessionEP27ext_image_capture_source_v1j
quickshell:_ZN9QtWayland33ext_image_copy_capture_manager_v129create_pointer_cursor_sessionEP27ext_image_capture_source_v1P10wl_pointer
quickshell:_ZN9QtWayland33ext_image_copy_capture_manager_v14initEP11wl_registryji
quickshell:_ZN9QtWayland33ext_image_copy_capture_manager_v14initEP33ext_image_copy_capture_manager_v1
quickshell:_ZN9QtWayland33ext_image_copy_capture_manager_v17destroyEv
quickshell:_ZN9QtWayland33ext_image_copy_capture_manager_v19interfaceEv
quickshell:_ZN9QtWayland33ext_image_copy_capture_manager_v1C1EP11wl_registryji
quickshell:_ZN9QtWayland33ext_image_copy_capture_manager_v1C1EP33ext_image_copy_capture_manager_v1
quickshell:_ZN9QtWayland33ext_image_copy_capture_manager_v1C1Ev
quickshell:_ZN9QtWayland33ext_image_copy_capture_manager_v1C2EP11wl_registryji
quickshell:_ZN9QtWayland33ext_image_copy_capture_manager_v1C2EP33ext_image_copy_capture_manager_v1
quickshell:_ZN9QtWayland33ext_image_copy_capture_manager_v1C2Ev
quickshell:_ZN9QtWayland33ext_image_copy_capture_manager_v1D0Ev
quickshell:_ZN9QtWayland33ext_image_copy_capture_manager_v1D1Ev
quickshell:_ZN9QtWayland33ext_image_copy_capture_manager_v1D2Ev
quickshell:_ZN9QtWayland33ext_image_copy_capture_session_v110fromObjectEP33ext_image_copy_capture_session_v1
quickshell:_ZN9QtWayland33ext_image_copy_capture_session_v111handle_doneEPvP33ext_image_copy_capture_session_v1
quickshell:_ZN9QtWayland33ext_image_copy_capture_session_v112create_frameEv
quickshell:_ZN9QtWayland33ext_image_copy_capture_session_v113init_listenerEv
quickshell:_ZN9QtWayland33ext_image_copy_capture_session_v114handle_stoppedEPvP33ext_image_copy_capture_session_v1
quickshell:_ZN9QtWayland33ext_image_copy_capture_session_v117handle_shm_formatEPvP33ext_image_copy_capture_session_v1j
quickshell:_ZN9QtWayland33ext_image_copy_capture_session_v118handle_buffer_sizeEPvP33ext_image_copy_capture_session_v1jj
quickshell:_ZN9QtWayland33ext_image_copy_capture_session_v120handle_dmabuf_deviceEPvP33ext_image_copy_capture_session_v1P8wl_array
quickshell:_ZN9QtWayland33ext_image_copy_capture_session_v120handle_dmabuf_formatEPvP33ext_image_copy_capture_session_v1jP8wl_array
quickshell:_ZN9QtWayland33ext_image_copy_capture_session_v138ext_image_copy_capture_session_v1_doneEv
quickshell:_ZN9QtWayland33ext_image_copy_capture_session_v141ext_image_copy_capture_session_v1_stoppedEv
quickshell:_ZN9QtWayland33ext_image_copy_capture_session_v144ext_image_copy_capture_session_v1_shm_formatEj
quickshell:_ZN9QtWayland33ext_image_copy_capture_session_v144m_ext_image_copy_capture_session_v1_listenerE
quickshell:_ZN9QtWayland33ext_image_copy_capture_session_v145ext_image_copy_capture_session_v1_buffer_sizeEjj
quickshell:_ZN9QtWayland33ext_image_copy_capture_session_v147ext_image_copy_capture_session_v1_dmabuf_deviceEP8wl_array
quickshell:_ZN9QtWayland33ext_image_copy_capture_session_v147ext_image_copy_capture_session_v1_dmabuf_formatEjP8wl_array
quickshell:_ZN9QtWayland33ext_image_copy_capture_session_v14initEP11wl_registryji
quickshell:_ZN9QtWayland33ext_image_copy_capture_session_v14initEP33ext_image_copy_capture_session_v1
quickshell:_ZN9QtWayland33ext_image_copy_capture_session_v17destroyEv
quickshell:_ZN9QtWayland33ext_image_copy_capture_session_v19interfaceEv
quickshell:_ZN9QtWayland33ext_image_copy_capture_session_v1C1EP11wl_registryji
quickshell:_ZN9QtWayland33ext_image_copy_capture_session_v1C1EP33ext_image_copy_capture_session_v1
quickshell:_ZN9QtWayland33ext_image_copy_capture_session_v1C1Ev
quickshell:_ZN9QtWayland33ext_image_copy_capture_session_v1C2EP11wl_registryji
quickshell:_ZN9QtWayland33ext_image_copy_capture_session_v1C2EP33ext_image_copy_capture_session_v1
quickshell:_ZN9QtWayland33ext_image_copy_capture_session_v1C2Ev
quickshell:_ZN9QtWayland33ext_image_copy_capture_session_v1D0Ev
quickshell:_ZN9QtWayland33ext_image_copy_capture_session_v1D1Ev
quickshell:_ZN9QtWayland33ext_image_copy_capture_session_v1D2Ev
quickshell:_ZN9QtWayland33hyprland_toplevel_export_frame_v110fromObjectEP33hyprland_toplevel_export_frame_v1
quickshell:_ZN9QtWayland33hyprland_toplevel_export_frame_v112handle_flagsEPvP33hyprland_toplevel_export_frame_v1j
quickshell:_ZN9QtWayland33hyprland_toplevel_export_frame_v112handle_readyEPvP33hyprland_toplevel_export_frame_v1jjj
quickshell:_ZN9QtWayland33hyprland_toplevel_export_frame_v113handle_bufferEPvP33hyprland_toplevel_export_frame_v1jjjj
quickshell:_ZN9QtWayland33hyprland_toplevel_export_frame_v113handle_damageEPvP33hyprland_toplevel_export_frame_v1jjjj
quickshell:_ZN9QtWayland33hyprland_toplevel_export_frame_v113handle_failedEPvP33hyprland_toplevel_export_frame_v1
quickshell:_ZN9QtWayland33hyprland_toplevel_export_frame_v113init_listenerEv
quickshell:_ZN9QtWayland33hyprland_toplevel_export_frame_v118handle_buffer_doneEPvP33hyprland_toplevel_export_frame_v1
quickshell:_ZN9QtWayland33hyprland_toplevel_export_frame_v119handle_linux_dmabufEPvP33hyprland_toplevel_export_frame_v1jjj
quickshell:_ZN9QtWayland33hyprland_toplevel_export_frame_v139hyprland_toplevel_export_frame_v1_flagsEj
quickshell:_ZN9QtWayland33hyprland_toplevel_export_frame_v139hyprland_toplevel_export_frame_v1_readyEjjj
quickshell:_ZN9QtWayland33hyprland_toplevel_export_frame_v140hyprland_toplevel_export_frame_v1_bufferEjjjj
quickshell:_ZN9QtWayland33hyprland_toplevel_export_frame_v140hyprland_toplevel_export_frame_v1_damageEjjjj
quickshell:_ZN9QtWayland33hyprland_toplevel_export_frame_v140hyprland_toplevel_export_frame_v1_failedEv
quickshell:_ZN9QtWayland33hyprland_toplevel_export_frame_v144m_hyprland_toplevel_export_frame_v1_listenerE
quickshell:_ZN9QtWayland33hyprland_toplevel_export_frame_v145hyprland_toplevel_export_frame_v1_buffer_doneEv
quickshell:_ZN9QtWayland33hyprland_toplevel_export_frame_v146hyprland_toplevel_export_frame_v1_linux_dmabufEjjj
quickshell:_ZN9QtWayland33hyprland_toplevel_export_frame_v14copyEP9wl_bufferi
quickshell:_ZN9QtWayland33hyprland_toplevel_export_frame_v14initEP11wl_registryji
quickshell:_ZN9QtWayland33hyprland_toplevel_export_frame_v14initEP33hyprland_toplevel_export_frame_v1
quickshell:_ZN9QtWayland33hyprland_toplevel_export_frame_v17destroyEv
quickshell:_ZN9QtWayland33hyprland_toplevel_export_frame_v19interfaceEv
quickshell:_ZN9QtWayland33hyprland_toplevel_export_frame_v1C1EP11wl_registryji
quickshell:_ZN9QtWayland33hyprland_toplevel_export_frame_v1C1EP33hyprland_toplevel_export_frame_v1
quickshell:_ZN9QtWayland33hyprland_toplevel_export_frame_v1C1Ev
quickshell:_ZN9QtWayland33hyprland_toplevel_export_frame_v1C2EP11wl_registryji
quickshell:_ZN9QtWayland33hyprland_toplevel_export_frame_v1C2EP33hyprland_toplevel_export_frame_v1
quickshell:_ZN9QtWayland33hyprland_toplevel_export_frame_v1C2Ev
quickshell:_ZN9QtWayland33hyprland_toplevel_export_frame_v1D0Ev
quickshell:_ZN9QtWayland33hyprland_toplevel_export_frame_v1D1Ev
quickshell:_ZN9QtWayland33hyprland_toplevel_export_frame_v1D2Ev
quickshell:_ZN9QtWayland35hyprland_toplevel_export_manager_v110fromObjectEP35hyprland_toplevel_export_manager_v1
quickshell:_ZN9QtWayland35hyprland_toplevel_export_manager_v116capture_toplevelEij
quickshell:_ZN9QtWayland35hyprland_toplevel_export_manager_v141capture_toplevel_with_wlr_toplevel_handleEiP31zwlr_foreign_toplevel_handle_v1
quickshell:_ZN9QtWayland35hyprland_toplevel_export_manager_v14initEP11wl_registryji
quickshell:_ZN9QtWayland35hyprland_toplevel_export_manager_v14initEP35hyprland_toplevel_export_manager_v1
quickshell:_ZN9QtWayland35hyprland_toplevel_export_manager_v17destroyEv
quickshell:_ZN9QtWayland35hyprland_toplevel_export_manager_v19interfaceEv
quickshell:_ZN9QtWayland35hyprland_toplevel_export_manager_v1C1EP11wl_registryji
quickshell:_ZN9QtWayland35hyprland_toplevel_export_manager_v1C1EP35hyprland_toplevel_export_manager_v1
quickshell:_ZN9QtWayland35hyprland_toplevel_export_manager_v1C1Ev
quickshell:_ZN9QtWayland35hyprland_toplevel_export_manager_v1C2EP11wl_registryji
quickshell:_ZN9QtWayland35hyprland_toplevel_export_manager_v1C2EP35hyprland_toplevel_export_manager_v1
quickshell:_ZN9QtWayland35hyprland_toplevel_export_manager_v1C2Ev
quickshell:_ZN9QtWayland35hyprland_toplevel_export_manager_v1D0Ev
quickshell:_ZN9QtWayland35hyprland_toplevel_export_manager_v1D1Ev
quickshell:_ZN9QtWayland35hyprland_toplevel_export_manager_v1D2Ev
quickshell:_ZN9QtWayland35zwp_keyboard_shortcuts_inhibitor_v110fromObjectEP35zwp_keyboard_shortcuts_inhibitor_v1
quickshell:_ZN9QtWayland35zwp_keyboard_shortcuts_inhibitor_v113handle_activeEPvP35zwp_keyboard_shortcuts_inhibitor_v1
quickshell:_ZN9QtWayland35zwp_keyboard_shortcuts_inhibitor_v113init_listenerEv
quickshell:_ZN9QtWayland35zwp_keyboard_shortcuts_inhibitor_v115handle_inactiveEPvP35zwp_keyboard_shortcuts_inhibitor_v1
quickshell:_ZN9QtWayland35zwp_keyboard_shortcuts_inhibitor_v142zwp_keyboard_shortcuts_inhibitor_v1_activeEv
quickshell:_ZN9QtWayland35zwp_keyboard_shortcuts_inhibitor_v144zwp_keyboard_shortcuts_inhibitor_v1_inactiveEv
quickshell:_ZN9QtWayland35zwp_keyboard_shortcuts_inhibitor_v146m_zwp_keyboard_shortcuts_inhibitor_v1_listenerE
quickshell:_ZN9QtWayland35zwp_keyboard_shortcuts_inhibitor_v14initEP11wl_registryji
quickshell:_ZN9QtWayland35zwp_keyboard_shortcuts_inhibitor_v14initEP35zwp_keyboard_shortcuts_inhibitor_v1
quickshell:_ZN9QtWayland35zwp_keyboard_shortcuts_inhibitor_v17destroyEv
quickshell:_ZN9QtWayland35zwp_keyboard_shortcuts_inhibitor_v19interfaceEv
quickshell:_ZN9QtWayland35zwp_keyboard_shortcuts_inhibitor_v1C1EP11wl_registryji
quickshell:_ZN9QtWayland35zwp_keyboard_shortcuts_inhibitor_v1C1EP35zwp_keyboard_shortcuts_inhibitor_v1
quickshell:_ZN9QtWayland35zwp_keyboard_shortcuts_inhibitor_v1C1Ev
quickshell:_ZN9QtWayland35zwp_keyboard_shortcuts_inhibitor_v1C2EP11wl_registryji
quickshell:_ZN9QtWayland35zwp_keyboard_shortcuts_inhibitor_v1C2EP35zwp_keyboard_shortcuts_inhibitor_v1
quickshell:_ZN9QtWayland35zwp_keyboard_shortcuts_inhibitor_v1C2Ev
quickshell:_ZN9QtWayland35zwp_keyboard_shortcuts_inhibitor_v1D0Ev
quickshell:_ZN9QtWayland35zwp_keyboard_shortcuts_inhibitor_v1D1Ev
quickshell:_ZN9QtWayland35zwp_keyboard_shortcuts_inhibitor_v1D2Ev
quickshell:_ZN9QtWayland36hyprland_global_shortcuts_manager_v110fromObjectEP36hyprland_global_shortcuts_manager_v1
quickshell:_ZN9QtWayland36hyprland_global_shortcuts_manager_v117register_shortcutERK7QStringS3_S3_S3_
quickshell:_ZN9QtWayland36hyprland_global_shortcuts_manager_v14initEP11wl_registryji
quickshell:_ZN9QtWayland36hyprland_global_shortcuts_manager_v14initEP36hyprland_global_shortcuts_manager_v1
quickshell:_ZN9QtWayland36hyprland_global_shortcuts_manager_v17destroyEv
quickshell:_ZN9QtWayland36hyprland_global_shortcuts_manager_v19interfaceEv
quickshell:_ZN9QtWayland36hyprland_global_shortcuts_manager_v1C1EP11wl_registryji
quickshell:_ZN9QtWayland36hyprland_global_shortcuts_manager_v1C1EP36hyprland_global_shortcuts_manager_v1
quickshell:_ZN9QtWayland36hyprland_global_shortcuts_manager_v1C1Ev
quickshell:_ZN9QtWayland36hyprland_global_shortcuts_manager_v1C2EP11wl_registryji
quickshell:_ZN9QtWayland36hyprland_global_shortcuts_manager_v1C2EP36hyprland_global_shortcuts_manager_v1
quickshell:_ZN9QtWayland36hyprland_global_shortcuts_manager_v1C2Ev
quickshell:_ZN9QtWayland36hyprland_global_shortcuts_manager_v1D0Ev
quickshell:_ZN9QtWayland36hyprland_global_shortcuts_manager_v1D1Ev
quickshell:_ZN9QtWayland36hyprland_global_shortcuts_manager_v1D2Ev
quickshell:_ZN9QtWayland36hyprland_toplevel_mapping_manager_v110fromObjectEP36hyprland_toplevel_mapping_manager_v1
quickshell:_ZN9QtWayland36hyprland_toplevel_mapping_manager_v123get_window_for_toplevelEv
quickshell:_ZN9QtWayland36hyprland_toplevel_mapping_manager_v127get_window_for_toplevel_wlrEP31zwlr_foreign_toplevel_handle_v1
quickshell:_ZN9QtWayland36hyprland_toplevel_mapping_manager_v14initEP11wl_registryji
quickshell:_ZN9QtWayland36hyprland_toplevel_mapping_manager_v14initEP36hyprland_toplevel_mapping_manager_v1
quickshell:_ZN9QtWayland36hyprland_toplevel_mapping_manager_v17destroyEv
quickshell:_ZN9QtWayland36hyprland_toplevel_mapping_manager_v19interfaceEv
quickshell:_ZN9QtWayland36hyprland_toplevel_mapping_manager_v1C1EP11wl_registryji
quickshell:_ZN9QtWayland36hyprland_toplevel_mapping_manager_v1C1EP36hyprland_toplevel_mapping_manager_v1
quickshell:_ZN9QtWayland36hyprland_toplevel_mapping_manager_v1C1Ev
quickshell:_ZN9QtWayland36hyprland_toplevel_mapping_manager_v1C2EP11wl_registryji
quickshell:_ZN9QtWayland36hyprland_toplevel_mapping_manager_v1C2EP36hyprland_toplevel_mapping_manager_v1
quickshell:_ZN9QtWayland36hyprland_toplevel_mapping_manager_v1C2Ev
quickshell:_ZN9QtWayland36hyprland_toplevel_mapping_manager_v1D0Ev
quickshell:_ZN9QtWayland36hyprland_toplevel_mapping_manager_v1D1Ev
quickshell:_ZN9QtWayland36hyprland_toplevel_mapping_manager_v1D2Ev
quickshell:_ZN9QtWayland40ext_image_copy_capture_cursor_session_v110fromObjectEP40ext_image_copy_capture_cursor_session_v1
quickshell:_ZN9QtWayland40ext_image_copy_capture_cursor_session_v112handle_enterEPvP40ext_image_copy_capture_cursor_session_v1
quickshell:_ZN9QtWayland40ext_image_copy_capture_cursor_session_v112handle_leaveEPvP40ext_image_copy_capture_cursor_session_v1
quickshell:_ZN9QtWayland40ext_image_copy_capture_cursor_session_v113init_listenerEv
quickshell:_ZN9QtWayland40ext_image_copy_capture_cursor_session_v114handle_hotspotEPvP40ext_image_copy_capture_cursor_session_v1ii
quickshell:_ZN9QtWayland40ext_image_copy_capture_cursor_session_v115handle_positionEPvP40ext_image_copy_capture_cursor_session_v1ii
quickshell:_ZN9QtWayland40ext_image_copy_capture_cursor_session_v119get_capture_sessionEv
quickshell:_ZN9QtWayland40ext_image_copy_capture_cursor_session_v146ext_image_copy_capture_cursor_session_v1_enterEv
quickshell:_ZN9QtWayland40ext_image_copy_capture_cursor_session_v146ext_image_copy_capture_cursor_session_v1_leaveEv
quickshell:_ZN9QtWayland40ext_image_copy_capture_cursor_session_v148ext_image_copy_capture_cursor_session_v1_hotspotEii
quickshell:_ZN9QtWayland40ext_image_copy_capture_cursor_session_v149ext_image_copy_capture_cursor_session_v1_positionEii
quickshell:_ZN9QtWayland40ext_image_copy_capture_cursor_session_v14initEP11wl_registryji
quickshell:_ZN9QtWayland40ext_image_copy_capture_cursor_session_v14initEP40ext_image_copy_capture_cursor_session_v1
quickshell:_ZN9QtWayland40ext_image_copy_capture_cursor_session_v151m_ext_image_copy_capture_cursor_session_v1_listenerE
quickshell:_ZN9QtWayland40ext_image_copy_capture_cursor_session_v17destroyEv
quickshell:_ZN9QtWayland40ext_image_copy_capture_cursor_session_v19interfaceEv
quickshell:_ZN9QtWayland40ext_image_copy_capture_cursor_session_v1C1EP11wl_registryji
quickshell:_ZN9QtWayland40ext_image_copy_capture_cursor_session_v1C1EP40ext_image_copy_capture_cursor_session_v1
quickshell:_ZN9QtWayland40ext_image_copy_capture_cursor_session_v1C1Ev
quickshell:_ZN9QtWayland40ext_image_copy_capture_cursor_session_v1C2EP11wl_registryji
quickshell:_ZN9QtWayland40ext_image_copy_capture_cursor_session_v1C2EP40ext_image_copy_capture_cursor_session_v1
quickshell:_ZN9QtWayland40ext_image_copy_capture_cursor_session_v1C2Ev
quickshell:_ZN9QtWayland40ext_image_copy_capture_cursor_session_v1D0Ev
quickshell:_ZN9QtWayland40ext_image_copy_capture_cursor_session_v1D1Ev
quickshell:_ZN9QtWayland40ext_image_copy_capture_cursor_session_v1D2Ev
quickshell:_ZN9QtWayland41zwp_keyboard_shortcuts_inhibit_manager_v110fromObjectEP41zwp_keyboard_shortcuts_inhibit_manager_v1
quickshell:_ZN9QtWayland41zwp_keyboard_shortcuts_inhibit_manager_v117inhibit_shortcutsEP10wl_surfaceP7wl_seat
quickshell:_ZN9QtWayland41zwp_keyboard_shortcuts_inhibit_manager_v14initEP11wl_registryji
quickshell:_ZN9QtWayland41zwp_keyboard_shortcuts_inhibit_manager_v14initEP41zwp_keyboard_shortcuts_inhibit_manager_v1
quickshell:_ZN9QtWayland41zwp_keyboard_shortcuts_inhibit_manager_v17destroyEv
quickshell:_ZN9QtWayland41zwp_keyboard_shortcuts_inhibit_manager_v19interfaceEv
quickshell:_ZN9QtWayland41zwp_keyboard_shortcuts_inhibit_manager_v1C1EP11wl_registryji
quickshell:_ZN9QtWayland41zwp_keyboard_shortcuts_inhibit_manager_v1C1EP41zwp_keyboard_shortcuts_inhibit_manager_v1
quickshell:_ZN9QtWayland41zwp_keyboard_shortcuts_inhibit_manager_v1C1Ev
quickshell:_ZN9QtWayland41zwp_keyboard_shortcuts_inhibit_manager_v1C2EP11wl_registryji
quickshell:_ZN9QtWayland41zwp_keyboard_shortcuts_inhibit_manager_v1C2EP41zwp_keyboard_shortcuts_inhibit_manager_v1
quickshell:_ZN9QtWayland41zwp_keyboard_shortcuts_inhibit_manager_v1C2Ev
quickshell:_ZN9QtWayland41zwp_keyboard_shortcuts_inhibit_manager_v1D0Ev
quickshell:_ZN9QtWayland41zwp_keyboard_shortcuts_inhibit_manager_v1D1Ev
quickshell:_ZN9QtWayland41zwp_keyboard_shortcuts_inhibit_manager_v1D2Ev
quickshell:_ZN9QtWayland42ext_output_image_capture_source_manager_v110fromObjectEP42ext_output_image_capture_source_manager_v1
quickshell:_ZN9QtWayland42ext_output_image_capture_source_manager_v113create_sourceEP9wl_output
quickshell:_ZN9QtWayland42ext_output_image_capture_source_manager_v14initEP11wl_registryji
quickshell:_ZN9QtWayland42ext_output_image_capture_source_manager_v14initEP42ext_output_image_capture_source_manager_v1
quickshell:_ZN9QtWayland42ext_output_image_capture_source_manager_v17destroyEv
quickshell:_ZN9QtWayland42ext_output_image_capture_source_manager_v19interfaceEv
quickshell:_ZN9QtWayland42ext_output_image_capture_source_manager_v1C1EP11wl_registryji
quickshell:_ZN9QtWayland42ext_output_image_capture_source_manager_v1C1EP42ext_output_image_capture_source_manager_v1
quickshell:_ZN9QtWayland42ext_output_image_capture_source_manager_v1C1Ev
quickshell:_ZN9QtWayland42ext_output_image_capture_source_manager_v1C2EP11wl_registryji
quickshell:_ZN9QtWayland42ext_output_image_capture_source_manager_v1C2EP42ext_output_image_capture_source_manager_v1
quickshell:_ZN9QtWayland42ext_output_image_capture_source_manager_v1C2Ev
quickshell:_ZN9QtWayland42ext_output_image_capture_source_manager_v1D0Ev
quickshell:_ZN9QtWayland42ext_output_image_capture_source_manager_v1D1Ev
quickshell:_ZN9QtWayland42ext_output_image_capture_source_manager_v1D2Ev
quickshell:_ZN9QtWayland42hyprland_toplevel_window_mapping_handle_v110fromObjectEP42hyprland_toplevel_window_mapping_handle_v1
quickshell:_ZN9QtWayland42hyprland_toplevel_window_mapping_handle_v113handle_failedEPvP42hyprland_toplevel_window_mapping_handle_v1
quickshell:_ZN9QtWayland42hyprland_toplevel_window_mapping_handle_v113init_listenerEv
quickshell:_ZN9QtWayland42hyprland_toplevel_window_mapping_handle_v121handle_window_addressEPvP42hyprland_toplevel_window_mapping_handle_v1jj
quickshell:_ZN9QtWayland42hyprland_toplevel_window_mapping_handle_v149hyprland_toplevel_window_mapping_handle_v1_failedEv
quickshell:_ZN9QtWayland42hyprland_toplevel_window_mapping_handle_v14initEP11wl_registryji
quickshell:_ZN9QtWayland42hyprland_toplevel_window_mapping_handle_v14initEP42hyprland_toplevel_window_mapping_handle_v1
quickshell:_ZN9QtWayland42hyprland_toplevel_window_mapping_handle_v153m_hyprland_toplevel_window_mapping_handle_v1_listenerE
quickshell:_ZN9QtWayland42hyprland_toplevel_window_mapping_handle_v157hyprland_toplevel_window_mapping_handle_v1_window_addressEjj
quickshell:_ZN9QtWayland42hyprland_toplevel_window_mapping_handle_v17destroyEv
quickshell:_ZN9QtWayland42hyprland_toplevel_window_mapping_handle_v19interfaceEv
quickshell:_ZN9QtWayland42hyprland_toplevel_window_mapping_handle_v1C1EP11wl_registryji
quickshell:_ZN9QtWayland42hyprland_toplevel_window_mapping_handle_v1C1EP42hyprland_toplevel_window_mapping_handle_v1
quickshell:_ZN9QtWayland42hyprland_toplevel_window_mapping_handle_v1C1Ev
quickshell:_ZN9QtWayland42hyprland_toplevel_window_mapping_handle_v1C2EP11wl_registryji
quickshell:_ZN9QtWayland42hyprland_toplevel_window_mapping_handle_v1C2EP42hyprland_toplevel_window_mapping_handle_v1
quickshell:_ZN9QtWayland42hyprland_toplevel_window_mapping_handle_v1C2Ev
quickshell:_ZN9QtWayland42hyprland_toplevel_window_mapping_handle_v1D0Ev
quickshell:_ZN9QtWayland42hyprland_toplevel_window_mapping_handle_v1D1Ev
quickshell:_ZN9QtWayland42hyprland_toplevel_window_mapping_handle_v1D2Ev
quickshell:_ZN9QtWayland52ext_foreign_toplevel_image_capture_source_manager_v110fromObjectEP52ext_foreign_toplevel_image_capture_source_manager_v1
quickshell:_ZN9QtWayland52ext_foreign_toplevel_image_capture_source_manager_v113create_sourceEP30ext_foreign_toplevel_handle_v1
quickshell:_ZN9QtWayland52ext_foreign_toplevel_image_capture_source_manager_v14initEP11wl_registryji
quickshell:_ZN9QtWayland52ext_foreign_toplevel_image_capture_source_manager_v14initEP52ext_foreign_toplevel_image_capture_source_manager_v1
quickshell:_ZN9QtWayland52ext_foreign_toplevel_image_capture_source_manager_v17destroyEv
quickshell:_ZN9QtWayland52ext_foreign_toplevel_image_capture_source_manager_v19interfaceEv
quickshell:_ZN9QtWayland52ext_foreign_toplevel_image_capture_source_manager_v1C1EP11wl_registryji
quickshell:_ZN9QtWayland52ext_foreign_toplevel_image_capture_source_manager_v1C1EP52ext_foreign_toplevel_image_capture_source_manager_v1
quickshell:_ZN9QtWayland52ext_foreign_toplevel_image_capture_source_manager_v1C1Ev
quickshell:_ZN9QtWayland52ext_foreign_toplevel_image_capture_source_manager_v1C2EP11wl_registryji
quickshell:_ZN9QtWayland52ext_foreign_toplevel_image_capture_source_manager_v1C2EP52ext_foreign_toplevel_image_capture_source_manager_v1
quickshell:_ZN9QtWayland52ext_foreign_toplevel_image_capture_source_manager_v1C2Ev
quickshell:_ZN9QtWayland52ext_foreign_toplevel_image_capture_source_manager_v1D0Ev
quickshell:_ZN9QtWayland52ext_foreign_toplevel_image_capture_source_manager_v1D1Ev
quickshell:_ZN9QtWayland52ext_foreign_toplevel_image_capture_source_manager_v1D2Ev
quickshell:_ZN9QtWayland9xdg_popup10fromObjectEP9xdg_popup
quickshell:_ZN9QtWayland9xdg_popup10repositionEP14xdg_positionerj
quickshell:_ZN9QtWayland9xdg_popup13init_listenerEv
quickshell:_ZN9QtWayland9xdg_popup16handle_configureEPvP9xdg_popupiiii
quickshell:_ZN9QtWayland9xdg_popup17handle_popup_doneEPvP9xdg_popup
quickshell:_ZN9QtWayland9xdg_popup19handle_repositionedEPvP9xdg_popupj
quickshell:_ZN9QtWayland9xdg_popup19xdg_popup_configureEiiii
quickshell:_ZN9QtWayland9xdg_popup20m_xdg_popup_listenerE
quickshell:_ZN9QtWayland9xdg_popup20xdg_popup_popup_doneEv
quickshell:_ZN9QtWayland9xdg_popup22xdg_popup_repositionedEj
quickshell:_ZN9QtWayland9xdg_popup4grabEP7wl_seatj
quickshell:_ZN9QtWayland9xdg_popup4initEP11wl_registryji
quickshell:_ZN9QtWayland9xdg_popup4initEP9xdg_popup
quickshell:_ZN9QtWayland9xdg_popup7destroyEv
quickshell:_ZN9QtWayland9xdg_popup9interfaceEv
quickshell:_ZN9QtWayland9xdg_popupC1EP11wl_registryji
quickshell:_ZN9QtWayland9xdg_popupC1EP9xdg_popup
quickshell:_ZN9QtWayland9xdg_popupC1Ev
quickshell:_ZN9QtWayland9xdg_popupC2EP11wl_registryji
quickshell:_ZN9QtWayland9xdg_popupC2EP9xdg_popup
quickshell:_ZN9QtWayland9xdg_popupC2Ev
quickshell:_ZN9QtWayland9xdg_popupD0Ev
quickshell:_ZN9QtWayland9xdg_popupD1Ev
quickshell:_ZN9QtWayland9xdg_popupD2Ev
quickshell:_ZN9ShellRoot11qt_metacallEN11QMetaObject4CallEiPPv
quickshell:_ZN9ShellRoot11qt_metacastEPKc
quickshell:_ZN9ShellRoot16staticMetaObjectE
quickshell:_ZN9Singleton11qt_metacallEN11QMetaObject4CallEiPPv
quickshell:_ZN9Singleton11qt_metacastEPKc
quickshell:_ZN9Singleton16staticMetaObjectE
quickshell:_ZN9Singleton17componentCompleteEv
quickshell:_ZNK10DataStream10metaObjectEv
quickshell:_ZNK10DataStream6readerEv
quickshell:_ZNK10LazyLoader10metaObjectEv
quickshell:_ZNK10LazyLoader6sourceEv
quickshell:_ZNK10LazyLoader8isActiveEv
quickshell:_ZNK10LazyLoader9componentEv
quickshell:_ZNK10LazyLoader9isLoadingEv
quickshell:_ZNK10PamContext10metaObjectEv
quickshell:_ZNK10PamContext14messageIsErrorEv
quickshell:_ZNK10PamContext15configDirectoryEv
quickshell:_ZNK10PamContext17isResponseVisibleEv
quickshell:_ZNK10PamContext18isResponseRequiredEv
quickshell:_ZNK10PamContext4userEv
quickshell:_ZNK10PamContext6configEv
quickshell:_ZNK10PamContext7messageEv
quickshell:_ZNK10PamContext8isActiveEv
quickshell:_ZNK10QmlScanner21hasFileContentChangedERK7QString
quickshell:_ZNK10Reloadable10metaObjectEv
quickshell:_ZNK10Retainable10isRetainedEv
quickshell:_ZNK10SystemTray10metaObjectEv
quickshell:_ZNK11EasingCurve10metaObjectEv
quickshell:_ZNK11EasingCurve11interpolateEdRK6QRectFS2_
quickshell:_ZNK11EasingCurve11interpolateEdRK7QPointFS2_
quickshell:_ZNK11EasingCurve11interpolateEddd
quickshell:_ZNK11EasingCurve5curveEv
quickshell:_ZNK11EasingCurve7valueAtEd
quickshell:_ZNK11GreetdState10metaObjectEv
quickshell:_ZNK11PamIpcPipes10readStringB5cxx11EPb
quickshell:_ZNK11PamIpcPipes10writeBytesEPKcm
quickshell:_ZNK11PamIpcPipes11writeStringERKNSt7__cxx1112basic_stringIcSt11char_traitsIcESaIcEEE
quickshell:_ZNK11PamIpcPipes9readBytesEPcm
quickshell:_ZNK11PopupAnchor10metaObjectEv
quickshell:_ZNK11PopupAnchor13backingWindowEv
quickshell:_ZNK11PopupAnchor7isDirtyEv
quickshell:_ZNK11RootWrapper10metaObjectEv
quickshell:_ZNK11ScriptModel10metaObjectEv
quickshell:_ZNK11ScriptModel4dataERK11QModelIndexi
quickshell:_ZNK11ScriptModel8rowCountERK11QModelIndex
quickshell:_ZNK11ScriptModel9roleNamesEv
quickshell:_ZNK11SplitParser10metaObjectEv
quickshell:_ZNK11SplitParser11splitMarkerEv
quickshell:_ZNK11SystemClock10metaObjectEv
quickshell:_ZNK11SystemClock7enabledEv
quickshell:_ZNK11SystemClock9precisionEv
quickshell:_ZNK12DesktopEntry10metaObjectEv
quickshell:_ZNK12DesktopEntry7actionsEv
quickshell:_ZNK12DesktopEntry7executeEv
quickshell:_ZNK12DesktopEntry7isValidEv
quickshell:_ZNK12ElapsedTimer10metaObjectEv
quickshell:_ZNK12SocketServer10metaObjectEv
quickshell:_ZNK12SocketServer4pathEv
quickshell:_ZNK12SocketServer7handlerEv
quickshell:_ZNK12SocketServer8isActiveEv
quickshell:_ZNK12XPanelWindow10metaObjectEv
quickshell:_ZNK13DesktopAction10metaObjectEv
quickshell:_ZNK13DesktopAction7executeEv
quickshell:_ZNK13PendingRegion10metaObjectEv
quickshell:_ZNK13PendingRegion5buildEv
quickshell:_ZNK13PendingRegion5emptyEv
quickshell:_ZNK13PendingRegion7applyToER7QRegion
quickshell:_ZNK13PendingRegion7applyToERK5QRect
quickshell:_ZNK13ProxiedWindow10metaObjectEv
quickshell:_ZNK13QsImageHandle3urlEv
quickshell:_ZNK13WlSessionLock10metaObjectEv
quickshell:_ZNK13WlSessionLock16surfaceComponentEv
quickshell:_ZNK13WlSessionLock8isLockedEv
quickshell:_ZNK13WlSessionLock8isSecureEv
quickshell:_ZNK14BoundComponent10bindValuesEv
quickshell:_ZNK14BoundComponent10metaObjectEv
quickshell:_ZNK14BoundComponent15sourceComponentEv
quickshell:_ZNK14BoundComponent4itemEv
quickshell:_ZNK14BoundComponent6sourceEv
quickshell:_ZNK14ColorQuantizer10metaObjectEv
quickshell:_ZNK14DBusSniTooltipeqERKS_
quickshell:_ZNK14DesktopEntries10metaObjectEv
quickshell:_ZNK14PostReloadHook10metaObjectEv
quickshell:_ZNK14QsQmlIncubator10metaObjectEv
quickshell:_ZNK14RetainableHook10isRetainedEv
quickshell:_ZNK14RetainableHook10metaObjectEv
quickshell:_ZNK14RetainableLock10isRetainedEv
quickshell:_ZNK14RetainableLock10metaObjectEv
quickshell:_ZNK14RetainableLock6lockedEv
quickshell:_ZNK14RetainableLock6objectEv
quickshell:_ZNK14StdioCollector10metaObjectEv
quickshell:_ZNK15DBusMprisPlayer10metaObjectEv
quickshell:_ZNK15PamConversation10metaObjectEv
quickshell:_ZNK15PopupPositioner22shouldRepositionOnMoveEv
quickshell:_ZNK15ProxyWindowBase10metaObjectEv
quickshell:_ZNK15ProxyWindowBase11contentItemEv
quickshell:_ZNK15ProxyWindowBase11mapFromItemEP10QQuickItem6QRectF
quickshell:_ZNK15ProxyWindowBase11mapFromItemEP10QQuickItem7QPointF
quickshell:_ZNK15ProxyWindowBase11mapFromItemEP10QQuickItemdd
quickshell:_ZNK15ProxyWindowBase11mapFromItemEP10QQuickItemdddd
quickshell:_ZNK15ProxyWindowBase12itemPositionEP10QQuickItem
quickshell:_ZNK15ProxyWindowBase13backingWindowEv
quickshell:_ZNK15ProxyWindowBase14updatesEnabledEv
quickshell:_ZNK15ProxyWindowBase15isVisibleDirectEv
quickshell:_ZNK15ProxyWindowBase16devicePixelRatioEv
quickshell:_ZNK15ProxyWindowBase17deleteOnInvisibleEv
quickshell:_ZNK15ProxyWindowBase1xEv
quickshell:_ZNK15ProxyWindowBase1yEv
quickshell:_ZNK15ProxyWindowBase4maskEv
quickshell:_ZNK15ProxyWindowBase5colorEv
quickshell:_ZNK15ProxyWindowBase5widthEv
quickshell:_ZNK15ProxyWindowBase6heightEv
quickshell:_ZNK15ProxyWindowBase6screenEv
quickshell:_ZNK15ProxyWindowBase7qscreenEv
quickshell:_ZNK15ProxyWindowBase8itemRectEP10QQuickItem
quickshell:_ZNK15ProxyWindowBase9isVisibleEv
quickshell:_ZNK15WindowInterface10metaObjectEv
quickshell:_ZNK15WindowInterface10setVisibleEb
quickshell:_ZNK15WindowInterface11contentItemEv
quickshell:_ZNK15WindowInterface11mapFromItemEP10QQuickItem6QRectF
quickshell:_ZNK15WindowInterface11mapFromItemEP10QQuickItem7QPointF
quickshell:_ZNK15WindowInterface11mapFromItemEP10QQuickItemdd
quickshell:_ZNK15WindowInterface11mapFromItemEP10QQuickItemdddd
quickshell:_ZNK15WindowInterface12itemPositionEP10QQuickItem
quickshell:_ZNK15WindowInterface13implicitWidthEv
quickshell:_ZNK15WindowInterface13surfaceFormatEv
quickshell:_ZNK15WindowInterface14connectSignalsEv
quickshell:_ZNK15WindowInterface14implicitHeightEv
quickshell:_ZNK15WindowInterface14updatesEnabledEv
quickshell:_ZNK15WindowInterface16devicePixelRatioEv
quickshell:_ZNK15WindowInterface16setImplicitWidthEi
quickshell:_ZNK15WindowInterface16setSurfaceFormatE15QsSurfaceFormat
quickshell:_ZNK15WindowInterface17setImplicitHeightEi
quickshell:_ZNK15WindowInterface17setUpdatesEnabledEb
quickshell:_ZNK15WindowInterface22isBackingWindowVisibleEv
quickshell:_ZNK15WindowInterface4dataEv
quickshell:_ZNK15WindowInterface4maskEv
quickshell:_ZNK15WindowInterface5colorEv
quickshell:_ZNK15WindowInterface5widthEv
quickshell:_ZNK15WindowInterface6heightEv
quickshell:_ZNK15WindowInterface6screenEv
quickshell:_ZNK15WindowInterface7setMaskEP13PendingRegion
quickshell:_ZNK15WindowInterface8itemRectEP10QQuickItem
quickshell:_ZNK15WindowInterface8setColorE6QColor
quickshell:_ZNK15WindowInterface8setWidthEi
quickshell:_ZNK15WindowInterface9isVisibleEv
quickshell:_ZNK15WindowInterface9setHeightEi
quickshell:_ZNK15WindowInterface9setScreenEP20QuickshellScreenInfo
quickshell:_ZNK15XPanelInterface10metaObjectEv
quickshell:_ZNK15XPanelInterface11proxyWindowEv
quickshell:_ZNK15XPanelInterface12aboveWindowsEv
quickshell:_ZNK15XPanelInterface13exclusionModeEv
quickshell:_ZNK15XPanelInterface13exclusiveZoneEv
quickshell:_ZNK15XPanelInterface7anchorsEv
quickshell:_ZNK15XPanelInterface7marginsEv
quickshell:_ZNK15XPanelInterface9focusableEv
quickshell:_ZNK16DBusUPowerDevice10metaObjectEv
quickshell:_ZNK16DataStreamParser10metaObjectEv
quickshell:_ZNK16EngineGeneration10metaObjectEv
quickshell:_ZNK16GreetdConnection10metaObjectEv
quickshell:_ZNK16GreetdConnection11isAvailableEv
quickshell:_ZNK16GreetdConnection4userEv
quickshell:_ZNK16GreetdConnection5stateEv
quickshell:_ZNK16PopupAnchorStateeqERKS_
quickshell:_ZNK16ProxyPopupWindow10metaObjectEv
quickshell:_ZNK16ProxyPopupWindow12parentWindowEv
quickshell:_ZNK16ProxyPopupWindow17deleteOnInvisibleEv
quickshell:_ZNK16ProxyPopupWindow9relativeXEv
quickshell:_ZNK16ProxyPopupWindow9relativeYEv
quickshell:_ZNK16QsWindowAttached10metaObjectEv
quickshell:_ZNK16QsWindowAttached11mapFromItemEP10QQuickItem6QRectF
quickshell:_ZNK16QsWindowAttached11mapFromItemEP10QQuickItem7QPointF
quickshell:_ZNK16QsWindowAttached11mapFromItemEP10QQuickItemdd
quickshell:_ZNK16QsWindowAttached11mapFromItemEP10QQuickItemdddd
quickshell:_ZNK16QsWindowAttached12itemPositionEP10QQuickItem
quickshell:_ZNK16QsWindowAttached8itemRectEP10QQuickItem
quickshell:_ZNK16QuickshellGlobal10configPathERK7QString
quickshell:_ZNK16QuickshellGlobal10metaObjectEv
quickshell:_ZNK16QuickshellGlobal10watchFilesEv
quickshell:_ZNK16QuickshellGlobal16workingDirectoryEv
quickshell:_ZNK16QuickshellGlobal7dataDirEv
quickshell:_ZNK16QuickshellGlobal8cacheDirEv
quickshell:_ZNK16QuickshellGlobal8dataPathERK7QString
quickshell:_ZNK16QuickshellGlobal8shellDirEv
quickshell:_ZNK16QuickshellGlobal8stateDirEv
quickshell:_ZNK16QuickshellGlobal9cachePathERK7QString
quickshell:_ZNK16QuickshellGlobal9configDirEv
quickshell:_ZNK16QuickshellGlobal9processIdEv
quickshell:_ZNK16QuickshellGlobal9shellPathERK7QString
quickshell:_ZNK16QuickshellGlobal9shellRootEv
quickshell:_ZNK16QuickshellGlobal9statePathERK7QString
quickshell:_ZNK16QuickshellPlugin10metaObjectEv
quickshell:_ZNK16ReloadPropagator10metaObjectEv
quickshell:_ZNK16TransformWatcher10metaObjectEv
quickshell:_ZNK16TransformWatcher12commonParentEv
quickshell:_ZNK16TransformWatcher1aEv
quickshell:_ZNK16TransformWatcher1bEv
quickshell:_ZNK16TransformWatcher8linkItemEP10QQuickItem
quickshell:_ZNK17DBusMenuInterface10metaObjectEv
quickshell:_ZNK17DBusNMDeviceProxy10metaObjectEv
quickshell:_ZNK17DBusSniIconPixmap11createImageEv
quickshell:_ZNK17DBusSniIconPixmapeqERKS_
quickshell:_ZNK17DBusUPowerService10metaObjectEv
quickshell:_ZNK17QuickshellTracked10metaObjectEv
quickshell:_ZNK17QuickshellTracked10screenInfoEP7QScreen
quickshell:_ZNK17XPanelEventFilter10metaObjectEv
quickshell:_ZNK18DBusMprisPlayerApp10metaObjectEv
quickshell:_ZNK18QuickshellSettings10metaObjectEv
quickshell:_ZNK18QuickshellSettings10watchFilesEv
quickshell:_ZNK18QuickshellSettings16workingDirectoryEv
quickshell:_ZNK18SessionLockManager10metaObjectEv
quickshell:_ZNK18SessionLockManager8isLockedEv
quickshell:_ZNK18UntypedObjectModel10metaObjectEv
quickshell:_ZNK18UntypedObjectModel9roleNamesEv
quickshell:_ZNK19DBusNMWirelessProxy10metaObjectEv
quickshell:_ZNK19DesktopEntryManager10metaObjectEv
quickshell:_ZNK19DesktopEntryMonitor10metaObjectEv
quickshell:_ZNK19LockWindowExtension10isAttachedEv
quickshell:_ZNK19LockWindowExtension10metaObjectEv
quickshell:_ZNK19ProxyFloatingWindow10metaObjectEv
quickshell:_ZNK19ProxyWindowAttached10metaObjectEv
quickshell:_ZNK19ProxyWindowAttached11contentItemEv
quickshell:_ZNK19ProxyWindowAttached11proxyWindowEv
quickshell:_ZNK19ProxyWindowAttached6windowEv
quickshell:_ZNK19Quickshell_I3Plugin10metaObjectEv
quickshell:_ZNK19Quickshell_IoPlugin10metaObjectEv
quickshell:_ZNK20PanelWindowInterface10metaObjectEv
quickshell:_ZNK20PersistentProperties10metaObjectEv
quickshell:_ZNK20QSWaylandSessionLock10metaObjectEv
quickshell:_ZNK20QSWaylandSessionLock17hasCompositorLockEv
quickshell:_ZNK20QSWaylandSessionLock6activeEv
quickshell:_ZNK20QsIndexedImageHandle3urlEv
quickshell:_ZNK20QsInterceptDataReply10metaObjectEv
quickshell:_ZNK20QuickshellScreenInfo10metaObjectEv
quickshell:_ZNK20QuickshellScreenInfo11orientationEv
quickshell:_ZNK20QuickshellScreenInfo12serialNumberEv
quickshell:_ZNK20QuickshellScreenInfo12warnDanglingEv
quickshell:_ZNK20QuickshellScreenInfo16devicePixelRatioEv
quickshell:_ZNK20QuickshellScreenInfo18primaryOrientationEv
quickshell:_ZNK20QuickshellScreenInfo19logicalPixelDensityEv
quickshell:_ZNK20QuickshellScreenInfo1xEv
quickshell:_ZNK20QuickshellScreenInfo1yEv
quickshell:_ZNK20QuickshellScreenInfo20physicalPixelDensityEv
quickshell:_ZNK20QuickshellScreenInfo4nameEv
quickshell:_ZNK20QuickshellScreenInfo5modelEv
quickshell:_ZNK20QuickshellScreenInfo5widthEv
quickshell:_ZNK20QuickshellScreenInfo6heightEv
quickshell:_ZNK20QuickshellScreenInfo8toStringEv
quickshell:_ZNK20QuickshellScreenInfoeqERS_
quickshell:_ZNK20Quickshell_DWLPlugin10metaObjectEv
quickshell:_ZNK20Quickshell_X11Plugin10metaObjectEv
quickshell:_ZNK20WlSessionLockSurface10metaObjectEv
quickshell:_ZNK20WlSessionLockSurface11contentItemEv
quickshell:_ZNK20WlSessionLockSurface5colorEv
quickshell:_ZNK20WlSessionLockSurface5widthEv
quickshell:_ZNK20WlSessionLockSurface6heightEv
quickshell:_ZNK20WlSessionLockSurface6screenEv
quickshell:_ZNK20WlSessionLockSurface9isVisibleEv
quickshell:_ZNK21Quickshell_NiriPlugin10metaObjectEv
quickshell:_ZNK22DBusNMAccessPointProxy10metaObjectEv
quickshell:_ZNK22DBusNotificationServer10metaObjectEv
quickshell:_ZNK22DBusStatusNotifierItem10metaObjectEv
quickshell:_ZNK22ProxyWindowContentItem10metaObjectEv
quickshell:_ZNK22QsIncubationController10metaObjectEv
quickshell:_ZNK22WaylandPopupPositioner22shouldRepositionOnMoveEv
quickshell:_ZNK23ColorQuantizerOperation10metaObjectEv
quickshell:_ZNK23DBusNetworkManagerProxy10metaObjectEv
quickshell:_ZNK23DBusPropertiesInterface10metaObjectEv
quickshell:_ZNK23FloatingWindowInterface10metaObjectEv
quickshell:_ZNK23FloatingWindowInterface11isMaximizedEv
quickshell:_ZNK23FloatingWindowInterface11isMinimizedEv
quickshell:_ZNK23FloatingWindowInterface11proxyWindowEv
quickshell:_ZNK23FloatingWindowInterface12isFullscreenEv
quickshell:_ZNK23FloatingWindowInterface15startSystemMoveEv
quickshell:_ZNK23FloatingWindowInterface17startSystemResizeE6QFlagsIN2Qt4EdgeEE
quickshell:_ZNK24DBusBluezDeviceInterface10metaObjectEv
quickshell:_ZNK24Quickshell_I3__IpcPlugin10metaObjectEv
quickshell:_ZNK24Quickshell_WaylandPlugin10metaObjectEv
quickshell:_ZNK24Quickshell_WidgetsPlugin10metaObjectEv
quickshell:_ZNK24Quickshell__WindowPlugin10metaObjectEv
quickshell:_ZNK25DBusBluezAdapterInterface10metaObjectEv
quickshell:_ZNK25DBusStatusNotifierWatcher10metaObjectEv
quickshell:_ZNK25Quickshell_DBusMenuPlugin10metaObjectEv
quickshell:_ZNK25Quickshell_HyprlandPlugin10metaObjectEv
quickshell:_ZNK26DBusObjectManagerInterface10metaObjectEv
quickshell:_ZNK26Quickshell_BluetoothPlugin10metaObjectEv
quickshell:_ZNK26Quickshell_Niri__IpcPlugin10metaObjectEv
quickshell:_ZNK27BoundComponentPropertyProxy10metaObjectEv
quickshell:_ZNK27DBusNMActiveConnectionProxy10metaObjectEv
quickshell:_ZNK27QSWaylandSessionLockManager8isLockedEv
quickshell:_ZNK27QSWaylandSessionLockManager8isSecureEv
quickshell:_ZNK27QSWaylandSessionLockSurface17commitSurfaceRoleEv
quickshell:_ZNK27QSWaylandSessionLockSurface9isExposedEv
quickshell:_ZNK27Quickshell_NetworkingPlugin10metaObjectEv
quickshell:_ZNK28Quickshell__InternalUiPlugin10metaObjectEv
quickshell:_ZNK28StatusNotifierWatcherAdaptor10metaObjectEv
quickshell:_ZNK28StatusNotifierWatcherAdaptor15protocolVersionEv
quickshell:_ZNK28StatusNotifierWatcherAdaptor29registeredStatusNotifierItemsEv
quickshell:_ZNK28StatusNotifierWatcherAdaptor30isStatusNotifierHostRegisteredEv
quickshell:_ZNK29DBusNMConnectionSettingsProxy10metaObjectEv
quickshell:_ZNK29Quickshell_Services_PamPlugin10metaObjectEv
quickshell:_ZNK2qs2i33ipc10I3IpcEvent10metaObjectEv
quickshell:_ZNK2qs2i33ipc10I3IpcEvent4dataEv
quickshell:_ZNK2qs2i33ipc10I3IpcEvent4typeEv
quickshell:_ZNK2qs2i33ipc11I3Workspace10metaObjectEv
quickshell:_ZNK2qs2i33ipc11I3Workspace13lastIpcObjectEv
quickshell:_ZNK2qs2i33ipc13I3IpcListener10metaObjectEv
quickshell:_ZNK2qs2i33ipc13I3IpcListener13subscriptionsEv
quickshell:_ZNK2qs2i33ipc15I3IpcController10metaObjectEv
quickshell:_ZNK2qs2i33ipc5I3Ipc10metaObjectEv
quickshell:_ZNK2qs2i33ipc5I3Ipc10socketPathEv
quickshell:_ZNK2qs2i33ipc5I3Ipc16eventSocketErrorEN12QLocalSocket16LocalSocketErrorE
quickshell:_ZNK2qs2i33ipc8I3IpcQml10metaObjectEv
quickshell:_ZNK2qs2i33ipc9I3Monitor10metaObjectEv
quickshell:_ZNK2qs2i33ipc9I3Monitor13lastIpcObjectEv
quickshell:_ZNK2qs2io10JsonObject10metaObjectEv
quickshell:_ZNK2qs2io11JsonAdapter10metaObjectEv
quickshell:_ZNK2qs2io11JsonAdapter12serializeRecEPK7QObjectPK11QMetaObject
quickshell:_ZNK2qs2io12FileViewData7isEmptyEv
quickshell:_ZNK2qs2io12FileViewDatacvRK10QByteArrayEv
quickshell:_ZNK2qs2io12FileViewDatacvRK7QStringEv
quickshell:_ZNK2qs2io12FileViewDataeqERKS1_
quickshell:_ZNK2qs2io13FileViewError10metaObjectEv
quickshell:_ZNK2qs2io15FileViewAdapter10metaObjectEv
quickshell:_ZNK2qs2io17FileViewOperation10metaObjectEv
quickshell:_ZNK2qs2io3ipc10IntIpcType10fromStringERK7QString
quickshell:_ZNK2qs2io3ipc10IntIpcType13createStorageEv
quickshell:_ZNK2qs2io3ipc10IntIpcType14destroyStorageEPv
quickshell:_ZNK2qs2io3ipc10IntIpcType19genericArgumentNameEv
quickshell:_ZNK2qs2io3ipc10IntIpcType4nameEv
quickshell:_ZNK2qs2io3ipc10IntIpcType4sizeEv
quickshell:_ZNK2qs2io3ipc10IntIpcType8toStringEPv
quickshell:_ZNK2qs2io3ipc10IpcHandler10metaObjectEv
quickshell:_ZNK2qs2io3ipc10IpcHandler17onSignalTriggeredERK7QStringS5_
quickshell:_ZNK2qs2io3ipc10IpcHandler6targetEv
quickshell:_ZNK2qs2io3ipc10IpcHandler7enabledEv
quickshell:_ZNK2qs2io3ipc10IpcHandler7wireDefEv
quickshell:_ZNK2qs2io3ipc11BoolIpcType10fromStringERK7QString
quickshell:_ZNK2qs2io3ipc11BoolIpcType13createStorageEv
quickshell:_ZNK2qs2io3ipc11BoolIpcType14destroyStorageEPv
quickshell:_ZNK2qs2io3ipc11BoolIpcType19genericArgumentNameEv
quickshell:_ZNK2qs2io3ipc11BoolIpcType4nameEv
quickshell:_ZNK2qs2io3ipc11BoolIpcType4sizeEv
quickshell:_ZNK2qs2io3ipc11BoolIpcType8toStringEPv
quickshell:_ZNK2qs2io3ipc11IpcFunction6invokeEP7QObjectRNS1_14IpcCallStorageE
quickshell:_ZNK2qs2io3ipc11IpcFunction7wireDefEv
quickshell:_ZNK2qs2io3ipc11IpcFunction8toStringEv
quickshell:_ZNK2qs2io3ipc11IpcProperty4readEP7QObjectRNS1_11IpcTypeSlotE
quickshell:_ZNK2qs2io3ipc11IpcProperty7wireDefEv
quickshell:_ZNK2qs2io3ipc11IpcProperty8toStringEv
quickshell:_ZNK2qs2io3ipc11IpcTypeSlot4typeEv
quickshell:_ZNK2qs2io3ipc11VoidIpcType19genericArgumentNameEv
quickshell:_ZNK2qs2io3ipc11VoidIpcType4nameEv
quickshell:_ZNK2qs2io3ipc11VoidIpcType4sizeEv
quickshell:_ZNK2qs2io3ipc12ColorIpcType10fromStringERK7QString
quickshell:_ZNK2qs2io3ipc12ColorIpcType13createStorageEv
quickshell:_ZNK2qs2io3ipc12ColorIpcType14destroyStorageEPv
quickshell:_ZNK2qs2io3ipc12ColorIpcType19genericArgumentNameEv
quickshell:_ZNK2qs2io3ipc12ColorIpcType4nameEv
quickshell:_ZNK2qs2io3ipc12ColorIpcType4sizeEv
quickshell:_ZNK2qs2io3ipc12ColorIpcType8toStringEPv
quickshell:_ZNK2qs2io3ipc13DoubleIpcType10fromStringERK7QString
quickshell:_ZNK2qs2io3ipc13DoubleIpcType13createStorageEv
quickshell:_ZNK2qs2io3ipc13DoubleIpcType14destroyStorageEPv
quickshell:_ZNK2qs2io3ipc13DoubleIpcType19genericArgumentNameEv
quickshell:_ZNK2qs2io3ipc13DoubleIpcType4nameEv
quickshell:_ZNK2qs2io3ipc13DoubleIpcType4sizeEv
quickshell:_ZNK2qs2io3ipc13DoubleIpcType8toStringEPv
quickshell:_ZNK2qs2io3ipc13StringIpcType10fromStringERK7QString
quickshell:_ZNK2qs2io3ipc13StringIpcType13createStorageEv
quickshell:_ZNK2qs2io3ipc13StringIpcType14destroyStorageEPv
quickshell:_ZNK2qs2io3ipc13StringIpcType19genericArgumentNameEv
quickshell:_ZNK2qs2io3ipc13StringIpcType4nameEv
quickshell:_ZNK2qs2io3ipc13StringIpcType4sizeEv
quickshell:_ZNK2qs2io3ipc13StringIpcType8toStringEPv
quickshell:_ZNK2qs2io3ipc17IpcSignalListener10metaObjectEv
quickshell:_ZNK2qs2io3ipc18IpcHandlerRegistry11wireTargetsEv
quickshell:_ZNK2qs2io3ipc20WireSignalDefinition8toStringEv
quickshell:_ZNK2qs2io3ipc20WireTargetDefinition8toStringEv
quickshell:_ZNK2qs2io3ipc22WireFunctionDefinition8toStringEv
quickshell:_ZNK2qs2io3ipc22WirePropertyDefinition8toStringEv
quickshell:_ZNK2qs2io3ipc23IpcSignalRemoteListener10metaObjectEv
quickshell:_ZNK2qs2io3ipc4comm17StringCallCommand4execEPNS_3ipc19IpcServerConnectionE
quickshell:_ZNK2qs2io3ipc4comm20QueryMetadataCommand4execEPNS_3ipc19IpcServerConnectionE
quickshell:_ZNK2qs2io3ipc4comm20RemoteSignalListener10metaObjectEv
quickshell:_ZNK2qs2io3ipc4comm21StringPropReadCommand4execEPNS_3ipc19IpcServerConnectionE
quickshell:_ZNK2qs2io3ipc7IpcType11copyStorageEPKv
quickshell:_ZNK2qs2io3ipc9IpcSignal7wireDefEv
quickshell:_ZNK2qs2io8FileView10liveReaderEv
quickshell:_ZNK2qs2io8FileView10liveWriterEv
quickshell:_ZNK2qs2io8FileView10metaObjectEv
quickshell:_ZNK2qs2io8FileView12blockLoadingEv
quickshell:_ZNK2qs2io8FileView12writeCmpDataEv
quickshell:_ZNK2qs2io8FileView13blockAllReadsEv
quickshell:_ZNK2qs2io8FileView13shouldPreloadEv
quickshell:_ZNK2qs2io8FileView15isLoadedOrAsyncEv
quickshell:_ZNK2qs2io8FileView15shouldBlockReadEv
quickshell:_ZNK2qs2io8FileView4pathEv
quickshell:_ZNK2qs2io8FileView7adapterEv
quickshell:_ZNK2qs2ui11ReloadPopup10metaObjectEv
quickshell:_ZNK2qs2wm13WindowManager10metaObjectEv
quickshell:_ZNK2qs2wm16ScreenProjection10metaObjectEv
quickshell:_ZNK2qs2wm16ScreenProjection6screenEv
quickshell:_ZNK2qs2wm16WindowManagerQml10metaObjectEv
quickshell:_ZNK2qs2wm19WindowsetProjection10metaObjectEv
quickshell:_ZNK2qs2wm7wayland16WindowsetManager10metaObjectEv
quickshell:_ZNK2qs2wm7wayland20WaylandWindowManager10metaObjectEv
quickshell:_ZNK2qs2wm9Windowset10metaObjectEv
quickshell:_ZNK2qs3dwl12DwlIpcOutput10fullscreenEv
quickshell:_ZNK2qs3dwl12DwlIpcOutput10metaObjectEv
quickshell:_ZNK2qs3dwl12DwlIpcOutput10outputNameEv
quickshell:_ZNK2qs3dwl12DwlIpcOutput11layoutIndexEv
quickshell:_ZNK2qs3dwl12DwlIpcOutput12layoutSymbolEv
quickshell:_ZNK2qs3dwl12DwlIpcOutput4tagsEv
quickshell:_ZNK2qs3dwl12DwlIpcOutput5appIdEv
quickshell:_ZNK2qs3dwl12DwlIpcOutput5titleEv
quickshell:_ZNK2qs3dwl12DwlIpcOutput6activeEv
quickshell:_ZNK2qs3dwl12DwlIpcOutput8floatingEv
quickshell:_ZNK2qs3dwl12DwlIpcOutput8kbLayoutEv
quickshell:_ZNK2qs3dwl13DwlIpcManager10metaObjectEv
quickshell:_ZNK2qs3dwl13DwlIpcManager7layoutsEv
quickshell:_ZNK2qs3dwl13DwlIpcManager7outputsEv
quickshell:_ZNK2qs3dwl13DwlIpcManager8tagCountEv
quickshell:_ZNK2qs3dwl6DwlTag10metaObjectEv
quickshell:_ZNK2qs3dwl6DwlTag11clientCountEv
quickshell:_ZNK2qs3dwl6DwlTag13focusedClientEv
quickshell:_ZNK2qs3dwl6DwlTag5indexEv
quickshell:_ZNK2qs3dwl6DwlTag6activeEv
quickshell:_ZNK2qs3dwl6DwlTag6urgentEv
quickshell:_ZNK2qs3dwl9DwlIpcQml10metaObjectEv
quickshell:_ZNK2qs3dwl9DwlIpcQml13outputForNameERK7QString
quickshell:_ZNK2qs3dwl9DwlIpcQml7layoutsEv
quickshell:_ZNK2qs3dwl9DwlIpcQml7outputsEv
quickshell:_ZNK2qs3dwl9DwlIpcQml8tagCountEv
quickshell:_ZNK2qs3dwl9DwlIpcQml9availableEv
quickshell:_ZNK2qs3ipc19IpcServerConnection10metaObjectEv
quickshell:_ZNK2qs3ipc9IpcClient10metaObjectEv
quickshell:_ZNK2qs3ipc9IpcClient11isConnectedEv
quickshell:_ZNK2qs3ipc9IpcServer10metaObjectEv
quickshell:_ZNK2qs3log10LogManager10metaObjectEv
quickshell:_ZNK2qs3log10LogManager11rulesStringEv
quickshell:_ZNK2qs3log10LogManager12defaultLevelEv
quickshell:_ZNK2qs3log10LogManager8isSparseEv
quickshell:_ZNK2qs3log10LogMessageeqERKS1_
quickshell:_ZNK2qs3log11LogFollower10metaObjectEv
quickshell:_ZNK2qs3log11WriteBuffer9hasDeviceEv
quickshell:_ZNK2qs3log12DeviceReader9hasDeviceEv
quickshell:_ZNK2qs3log13ThreadLogging10metaObjectEv
quickshell:_ZNK2qs3log14CategoryFilter13shouldDisplayE9QtMsgType
quickshell:_ZNK2qs3log14CategoryFilter5applyEP16QLoggingCategory
quickshell:_ZNK2qs3log18LoggingThreadProxy10metaObjectEv
quickshell:_ZNK2qs3log19qt_logging_registry12QLoggingRule4passE13QLatin1String9QtMsgType
quickshell:_ZNK2qs4dbus17DBusObjectManager10metaObjectEv
quickshell:_ZNK2qs4dbus17DBusPropertyGroup10metaObjectEv
quickshell:_ZNK2qs4dbus17DBusPropertyGroup14propertyStringEPKNS0_16DBusPropertyCoreE
quickshell:_ZNK2qs4dbus17DBusPropertyGroup17tryUpdatePropertyEPNS0_16DBusPropertyCoreERK8QVariant
quickshell:_ZNK2qs4dbus17DBusPropertyGroup8toStringEv
quickshell:_ZNK2qs4dbus8dbusmenu12DBusMenuItem10buttonTypeEv
quickshell:_ZNK2qs4dbus8dbusmenu12DBusMenuItem10checkStateEv
quickshell:_ZNK2qs4dbus8dbusmenu12DBusMenuItem10menuHandleEv
quickshell:_ZNK2qs4dbus8dbusmenu12DBusMenuItem10metaObjectEv
quickshell:_ZNK2qs4dbus8dbusmenu12DBusMenuItem10sendClosedEv
quickshell:_ZNK2qs4dbus8dbusmenu12DBusMenuItem10sendOpenedEv
quickshell:_ZNK2qs4dbus8dbusmenu12DBusMenuItem11hasChildrenEv
quickshell:_ZNK2qs4dbus8dbusmenu12DBusMenuItem11isSeparatorEv
quickshell:_ZNK2qs4dbus8dbusmenu12DBusMenuItem12updateLayoutEv
quickshell:_ZNK2qs4dbus8dbusmenu12DBusMenuItem13sendTriggeredEv
quickshell:_ZNK2qs4dbus8dbusmenu12DBusMenuItem17isShowingChildrenEv
quickshell:_ZNK2qs4dbus8dbusmenu12DBusMenuItem4iconEv
quickshell:_ZNK2qs4dbus8dbusmenu12DBusMenuItem4textEv
quickshell:_ZNK2qs4dbus8dbusmenu12DBusMenuItem7enabledEv
quickshell:_ZNK2qs4dbus8dbusmenu8DBusMenu10metaObjectEv
quickshell:_ZNK2qs4menu11QsMenuEntry10metaObjectEv
quickshell:_ZNK2qs4menu12QsMenuAnchor10metaObjectEv
quickshell:_ZNK2qs4menu12QsMenuAnchor4menuEv
quickshell:_ZNK2qs4menu12QsMenuAnchor9isVisibleEv
quickshell:_ZNK2qs4menu12QsMenuHandle10metaObjectEv
quickshell:_ZNK2qs4menu12QsMenuOpener10metaObjectEv
quickshell:_ZNK2qs4menu12QsMenuOpener4menuEv
quickshell:_ZNK2qs4menu16QsMenuButtonType10metaObjectEv
quickshell:_ZNK2qs4menu8platform17PlatformMenuEntry10metaObjectEv
quickshell:_ZNK2qs4niri3ipc10NiriIpcQml10metaObjectEv
quickshell:_ZNK2qs4niri3ipc10NiriOutput10metaObjectEv
quickshell:_ZNK2qs4niri3ipc10NiriWindow10metaObjectEv
quickshell:_ZNK2qs4niri3ipc12NiriIpcEvent10metaObjectEv
quickshell:_ZNK2qs4niri3ipc13NiriWorkspace10metaObjectEv
quickshell:_ZNK2qs4niri3ipc7NiriIpc10metaObjectEv
quickshell:_ZNK2qs4niri3ipc7NiriIpc10socketPathEv
quickshell:_ZNK2qs4niri3ipc7NiriIpc16eventSocketErrorEN12QLocalSocket16LocalSocketErrorE
quickshell:_ZNK2qs4scan3env10PreprocEnv10metaObjectEv
quickshell:_ZNK2qs7network10DeviceType10metaObjectEv
quickshell:_ZNK2qs7network10Networking10metaObjectEv
quickshell:_ZNK2qs7network10WifiDevice10metaObjectEv
quickshell:_ZNK2qs7network11NM80211Mode10metaObjectEv
quickshell:_ZNK2qs7network11WifiNetwork10metaObjectEv
quickshell:_ZNK2qs7network12NMDeviceType10metaObjectEv
quickshell:_ZNK2qs7network12NetworkState10metaObjectEv
quickshell:_ZNK2qs7network13NMAccessPoint10metaObjectEv
quickshell:_ZNK2qs7network13NMAccessPoint4pathEv
quickshell:_ZNK2qs7network13NMAccessPoint7addressEv
quickshell:_ZNK2qs7network13NMAccessPoint7isValidEv
quickshell:_ZNK2qs7network13NMDeviceState10metaObjectEv
quickshell:_ZNK2qs7network13NetworkDevice10metaObjectEv
quickshell:_ZNK2qs7network14NM80211ApFlags10metaObjectEv
quickshell:_ZNK2qs7network14NetworkBackend10metaObjectEv
quickshell:_ZNK2qs7network14NetworkManager10metaObjectEv
quickshell:_ZNK2qs7network14NetworkManager11isAvailableEv
quickshell:_ZNK2qs7network14WifiDeviceMode10metaObjectEv
quickshell:_ZNK2qs7network16NMWirelessDevice10metaObjectEv
quickshell:_ZNK2qs7network16NMWirelessDevice7isValidEv
quickshell:_ZNK2qs7network16WifiSecurityType10metaObjectEv
quickshell:_ZNK2qs7network17NMConnectionState10metaObjectEv
quickshell:_ZNK2qs7network17NMWirelessNetwork10metaObjectEv
quickshell:_ZNK2qs7network18NMActiveConnection10metaObjectEv
quickshell:_ZNK2qs7network18NMActiveConnection4pathEv
quickshell:_ZNK2qs7network18NMActiveConnection7addressEv
quickshell:_ZNK2qs7network18NMActiveConnection7isValidEv
quickshell:_ZNK2qs7network18NetworkBackendType10metaObjectEv
quickshell:_ZNK2qs7network20NMConnectionSettings10metaObjectEv
quickshell:_ZNK2qs7network20NMConnectionSettings4pathEv
quickshell:_ZNK2qs7network20NMConnectionSettings7addressEv
quickshell:_ZNK2qs7network20NMConnectionSettings7isValidEv
quickshell:_ZNK2qs7network21DeviceConnectionState10metaObjectEv
quickshell:_ZNK2qs7network22NM80211ApSecurityFlags10metaObjectEv
quickshell:_ZNK2qs7network22NMWirelessCapabilities10metaObjectEv
quickshell:_ZNK2qs7network23NMConnectionStateReason10metaObjectEv
quickshell:_ZNK2qs7network7Network10metaObjectEv
quickshell:_ZNK2qs7network8NMDevice10metaObjectEv
quickshell:_ZNK2qs7network8NMDevice4pathEv
quickshell:_ZNK2qs7network8NMDevice7addressEv
quickshell:_ZNK2qs7network8NMDevice7isValidEv
quickshell:_ZNK2qs7service13notifications12Notification10metaObjectEv
quickshell:_ZNK2qs7service13notifications12Notification11closeReasonEv
quickshell:_ZNK2qs7service13notifications12Notification16isLastGenerationEv
quickshell:_ZNK2qs7service13notifications12Notification2idEv
quickshell:_ZNK2qs7service13notifications12Notification7actionsEv
quickshell:_ZNK2qs7service13notifications12Notification9isTrackedEv
quickshell:_ZNK2qs7service13notifications18NotificationAction10identifierEv
quickshell:_ZNK2qs7service13notifications18NotificationAction10metaObjectEv
quickshell:_ZNK2qs7service13notifications18NotificationAction4textEv
quickshell:_ZNK2qs7service13notifications18NotificationServer10metaObjectEv
quickshell:_ZNK2qs7service13notifications18NotificationServer15GetCapabilitiesEv
quickshell:_ZNK2qs7service13notifications19NotificationUrgency10metaObjectEv
quickshell:_ZNK2qs7service13notifications21DBusNotificationImage11createImageEv
quickshell:_ZNK2qs7service13notifications21NotificationServerQml10extraHintsEv
quickshell:_ZNK2qs7service13notifications21NotificationServerQml10metaObjectEv
quickshell:_ZNK2qs7service13notifications21NotificationServerQml12keepOnReloadEv
quickshell:_ZNK2qs7service13notifications21NotificationServerQml13bodySupportedEv
quickshell:_ZNK2qs7service13notifications21NotificationServerQml14imageSupportedEv
quickshell:_ZNK2qs7service13notifications21NotificationServerQml16actionsSupportedEv
quickshell:_ZNK2qs7service13notifications21NotificationServerQml19bodyImagesSupportedEv
quickshell:_ZNK2qs7service13notifications21NotificationServerQml19bodyMarkupSupportedEv
quickshell:_ZNK2qs7service13notifications21NotificationServerQml20actionIconsSupportedEv
quickshell:_ZNK2qs7service13notifications21NotificationServerQml20inlineReplySupportedEv
quickshell:_ZNK2qs7service13notifications21NotificationServerQml20persistenceSupportedEv
quickshell:_ZNK2qs7service13notifications21NotificationServerQml20trackedNotificationsEv
quickshell:_ZNK2qs7service13notifications21NotificationServerQml23bodyHyperlinksSupportedEv
quickshell:_ZNK2qs7service13notifications23NotificationCloseReason10metaObjectEv
quickshell:_ZNK2qs7service3sni18StatusNotifierHost10metaObjectEv
quickshell:_ZNK2qs7service3sni18StatusNotifierHost13itemByServiceERK7QString
quickshell:_ZNK2qs7service3sni18StatusNotifierHost5itemsEv
quickshell:_ZNK2qs7service3sni18StatusNotifierItem10metaObjectEv
quickshell:_ZNK2qs7service3sni18StatusNotifierItem12createPixmapERK5QSize
quickshell:_ZNK2qs7service3sni18StatusNotifierItem14onGetAllFailedEv
quickshell:_ZNK2qs7service3sni18StatusNotifierItem6scrollEib
quickshell:_ZNK2qs7service3sni18StatusNotifierItem7isReadyEv
quickshell:_ZNK2qs7service3sni18StatusNotifierItem7isValidEv
quickshell:_ZNK2qs7service3sni21StatusNotifierWatcher10metaObjectEv
quickshell:_ZNK2qs7service3sni21StatusNotifierWatcher12isRegisteredEv
quickshell:_ZNK2qs7service3sni21StatusNotifierWatcher15registeredItemsEv
quickshell:_ZNK2qs7service3sni21StatusNotifierWatcher16isHostRegisteredEv
quickshell:_ZNK2qs7service5mpris11MprisPlayer10metaObjectEv
quickshell:_ZNK2qs7service5mpris11MprisPlayer10positionMsEv
quickshell:_ZNK2qs7service5mpris11MprisPlayer13loopSupportedEv
quickshell:_ZNK2qs7service5mpris11MprisPlayer15volumeSupportedEv
quickshell:_ZNK2qs7service5mpris11MprisPlayer16shuffleSupportedEv
quickshell:_ZNK2qs7service5mpris11MprisPlayer17positionSupportedEv
quickshell:_ZNK2qs7service5mpris11MprisPlayer6lengthEv
quickshell:_ZNK2qs7service5mpris11MprisPlayer7addressEv
quickshell:_ZNK2qs7service5mpris11MprisPlayer7isValidEv
quickshell:_ZNK2qs7service5mpris11MprisPlayer8positionEv
quickshell:_ZNK2qs7service5mpris12MprisWatcher10metaObjectEv
quickshell:_ZNK2qs7service5mpris14MprisLoopState10metaObjectEv
quickshell:_ZNK2qs7service5mpris18MprisPlaybackState10metaObjectEv
quickshell:_ZNK2qs7service5mpris8MprisQml10metaObjectEv
quickshell:_ZNK2qs7service6polkit11PolkitAgent10metaObjectEv
quickshell:_ZNK2qs7service6polkit15PolkitAgentImpl10metaObjectEv
quickshell:_ZNK2qs7service6polkit7Session10metaObjectEv
quickshell:_ZNK2qs7service6polkit8AuthFlow10metaObjectEv
quickshell:_ZNK2qs7service6polkit8Identity10metaObjectEv
quickshell:_ZNK2qs7service6upower12PowerProfile10metaObjectEv
quickshell:_ZNK2qs7service6upower12UPowerDevice10metaObjectEv
quickshell:_ZNK2qs7service6upower12UPowerDevice4pathEv
quickshell:_ZNK2qs7service6upower12UPowerDevice7addressEv
quickshell:_ZNK2qs7service6upower12UPowerDevice7isValidEv
quickshell:_ZNK2qs7service6upower13PowerProfiles10metaObjectEv
quickshell:_ZNK2qs7service6upower16PowerProfileHoldeqERKS2_
quickshell:_ZNK2qs7service6upower16PowerProfilesQml10metaObjectEv
quickshell:_ZNK2qs7service6upower16UPowerDeviceType10metaObjectEv
quickshell:_ZNK2qs7service6upower17UPowerDeviceState10metaObjectEv
quickshell:_ZNK2qs7service6upower28PerformanceDegradationReason10metaObjectEv
quickshell:_ZNK2qs7service6upower6UPower10metaObjectEv
quickshell:_ZNK2qs7service6upower9UPowerQml10metaObjectEv
quickshell:_ZNK2qs7service8pipewire10PwMetadata10metaObjectEv
quickshell:_ZNK2qs7service8pipewire10PwMetadata16hasSetPermissionEv
quickshell:_ZNK2qs7service8pipewire10PwMetadata4nameEv
quickshell:_ZNK2qs7service8pipewire10PwNodeType10metaObjectEv
quickshell:_ZNK2qs7service8pipewire10PwRegistry10metaObjectEv
quickshell:_ZNK2qs7service8pipewire10PwRegistry14findNodeByNameE11QStringView
quickshell:_ZNK2qs7service8pipewire11PwLinkGroup10metaObjectEv
quickshell:_ZNK2qs7service8pipewire11PwLinkGroup10outputNodeEv
quickshell:_ZNK2qs7service8pipewire11PwLinkGroup5stateEv
quickshell:_ZNK2qs7service8pipewire11PwLinkGroup9inputNodeEv
quickshell:_ZNK2qs7service8pipewire11PwLinkIface10metaObjectEv
quickshell:_ZNK2qs7service8pipewire11PwLinkIface2idEv
quickshell:_ZNK2qs7service8pipewire11PwLinkIface4linkEv
quickshell:_ZNK2qs7service8pipewire11PwLinkIface5stateEv
quickshell:_ZNK2qs7service8pipewire11PwLinkIface6sourceEv
quickshell:_ZNK2qs7service8pipewire11PwLinkIface6targetEv
quickshell:_ZNK2qs7service8pipewire11PwLinkState10metaObjectEv
quickshell:_ZNK2qs7service8pipewire11PwNodeIface10metaObjectEv
quickshell:_ZNK2qs7service8pipewire11PwNodeIface10propertiesEv
quickshell:_ZNK2qs7service8pipewire11PwNodeIface11descriptionEv
quickshell:_ZNK2qs7service8pipewire11PwNodeIface2idEv
quickshell:_ZNK2qs7service8pipewire11PwNodeIface4nameEv
quickshell:_ZNK2qs7service8pipewire11PwNodeIface4nodeEv
quickshell:_ZNK2qs7service8pipewire11PwNodeIface4typeEv
quickshell:_ZNK2qs7service8pipewire11PwNodeIface5audioEv
quickshell:_ZNK2qs7service8pipewire11PwNodeIface6isSinkEv
quickshell:_ZNK2qs7service8pipewire11PwNodeIface7isReadyEv
quickshell:_ZNK2qs7service8pipewire11PwNodeIface8isStreamEv
quickshell:_ZNK2qs7service8pipewire11PwNodeIface8nicknameEv
quickshell:_ZNK2qs7service8pipewire12PwConnection10metaObjectEv
quickshell:_ZNK2qs7service8pipewire13PwObjectIface10metaObjectEv
quickshell:_ZNK2qs7service8pipewire14PwAudioChannel10metaObjectEv
quickshell:_ZNK2qs7service8pipewire15PwAudioSpectrum10metaObjectEv
quickshell:_ZNK2qs7service8pipewire15PwAudioSpectrum11lowerCutoffEv
quickshell:_ZNK2qs7service8pipewire15PwAudioSpectrum11upperCutoffEv
quickshell:_ZNK2qs7service8pipewire15PwAudioSpectrum14noiseReductionEv
quickshell:_ZNK2qs7service8pipewire15PwAudioSpectrum4nodeEv
quickshell:_ZNK2qs7service8pipewire15PwAudioSpectrum8barCountEv
quickshell:_ZNK2qs7service8pipewire15PwAudioSpectrum9frameRateEv
quickshell:_ZNK2qs7service8pipewire15PwAudioSpectrum9isEnabledEv
quickshell:_ZNK2qs7service8pipewire15PwAudioSpectrum9smoothingEv
quickshell:_ZNK2qs7service8pipewire15PwObjectTracker10metaObjectEv
quickshell:_ZNK2qs7service8pipewire15PwObjectTracker7objectsEv
quickshell:_ZNK2qs7service8pipewire16PwBindableObject10metaObjectEv
quickshell:_ZNK2qs7service8pipewire16PwBindableObject7debugIdER6QDebug
quickshell:_ZNK2qs7service8pipewire16PwDefaultTracker10metaObjectEv
quickshell:_ZNK2qs7service8pipewire16PwDefaultTracker11defaultSinkEv
quickshell:_ZNK2qs7service8pipewire16PwDefaultTracker13defaultSourceEv
quickshell:_ZNK2qs7service8pipewire16PwDefaultTracker21defaultConfiguredSinkEv
quickshell:_ZNK2qs7service8pipewire16PwDefaultTracker23defaultConfiguredSourceEv
quickshell:_ZNK2qs7service8pipewire16PwDefaultTracker25defaultConfiguredSinkNameEv
quickshell:_ZNK2qs7service8pipewire16PwDefaultTracker27defaultConfiguredSourceNameEv
quickshell:_ZNK2qs7service8pipewire16PwLinkGroupIface10metaObjectEv
quickshell:_ZNK2qs7service8pipewire16PwLinkGroupIface5groupEv
quickshell:_ZNK2qs7service8pipewire16PwLinkGroupIface5stateEv
quickshell:_ZNK2qs7service8pipewire16PwLinkGroupIface6sourceEv
quickshell:_ZNK2qs7service8pipewire16PwLinkGroupIface6targetEv
quickshell:_ZNK2qs7service8pipewire16PwNodeAudioIface10metaObjectEv
quickshell:_ZNK2qs7service8pipewire16PwNodeAudioIface13averageVolumeEv
quickshell:_ZNK2qs7service8pipewire16PwNodeAudioIface7isMutedEv
quickshell:_ZNK2qs7service8pipewire16PwNodeAudioIface7volumesEv
quickshell:_ZNK2qs7service8pipewire16PwNodeAudioIface8channelsEv
quickshell:_ZNK2qs7service8pipewire16PwNodeBoundAudio10metaObjectEv
quickshell:_ZNK2qs7service8pipewire16PwNodeBoundAudio13averageVolumeEv
quickshell:_ZNK2qs7service8pipewire16PwNodeBoundAudio7isMutedEv
quickshell:_ZNK2qs7service8pipewire16PwNodeBoundAudio7volumesEv
quickshell:_ZNK2qs7service8pipewire16PwNodeBoundAudio8channelsEv
quickshell:_ZNK2qs7service8pipewire17PwNodeLinkTracker10metaObjectEv
quickshell:_ZNK2qs7service8pipewire17PwNodeLinkTracker4nodeEv
quickshell:_ZNK2qs7service8pipewire17PwNodePeakMonitor10metaObjectEv
quickshell:_ZNK2qs7service8pipewire17PwNodePeakMonitor4nodeEv
quickshell:_ZNK2qs7service8pipewire17PwNodePeakMonitor9isEnabledEv
quickshell:_ZNK2qs7service8pipewire19PwBindableObjectRef10metaObjectEv
quickshell:_ZNK2qs7service8pipewire6PwCore10metaObjectEv
quickshell:_ZNK2qs7service8pipewire6PwCore4syncEj
quickshell:_ZNK2qs7service8pipewire6PwCore7isValidEv
quickshell:_ZNK2qs7service8pipewire6PwLink10metaObjectEv
quickshell:_ZNK2qs7service8pipewire6PwLink10outputNodeEv
quickshell:_ZNK2qs7service8pipewire6PwLink5stateEv
quickshell:_ZNK2qs7service8pipewire6PwLink9inputNodeEv
quickshell:_ZNK2qs7service8pipewire6PwNode10metaObjectEv
quickshell:_ZNK2qs7service8pipewire8Pipewire10metaObjectEv
quickshell:_ZNK2qs7service8pipewire8Pipewire16defaultAudioSinkEv
quickshell:_ZNK2qs7service8pipewire8Pipewire18defaultAudioSourceEv
quickshell:_ZNK2qs7service8pipewire8Pipewire26defaultConfiguredAudioSinkEv
quickshell:_ZNK2qs7service8pipewire8Pipewire28defaultConfiguredAudioSourceEv
quickshell:_ZNK2qs7service8pipewire8PwDevice10metaObjectEv
quickshell:_ZNK2qs7service8pipewire8PwDevice14hasRouteDeviceEi
quickshell:_ZNK2qs7service8pipewire8PwDevice16waitingForDeviceEv
quickshell:_ZNK2qs7wayland10layershell12LayerSurface9isExposedEv
quickshell:_ZNK2qs7wayland10layershell13WlrLayershell10metaObjectEv
quickshell:_ZNK2qs7wayland10layershell13WlrLayershell12aboveWindowsEv
quickshell:_ZNK2qs7wayland10layershell13WlrLayershell12computeStateEv
quickshell:_ZNK2qs7wayland10layershell13WlrLayershell17deleteOnInvisibleEv
quickshell:_ZNK2qs7wayland10layershell13WlrLayershell9focusableEv
quickshell:_ZNK2qs7wayland10layershell21WaylandPanelInterface10metaObjectEv
quickshell:_ZNK2qs7wayland10layershell21WaylandPanelInterface11proxyWindowEv
quickshell:_ZNK2qs7wayland10layershell21WaylandPanelInterface12aboveWindowsEv
quickshell:_ZNK2qs7wayland10layershell21WaylandPanelInterface13exclusionModeEv
quickshell:_ZNK2qs7wayland10layershell21WaylandPanelInterface13exclusiveZoneEv
quickshell:_ZNK2qs7wayland10layershell21WaylandPanelInterface7anchorsEv
quickshell:_ZNK2qs7wayland10layershell21WaylandPanelInterface7marginsEv
quickshell:_ZNK2qs7wayland10layershell21WaylandPanelInterface9focusableEv
quickshell:_ZNK2qs7wayland10screencopy14ScreencopyView10metaObjectEv
quickshell:_ZNK2qs7wayland10screencopy17ScreencopyContext10metaObjectEv
quickshell:_ZNK2qs7wayland11idle_notify11IdleMonitor10metaObjectEv
quickshell:_ZNK2qs7wayland11idle_notify4impl16IdleNotification10metaObjectEv
quickshell:_ZNK2qs7wayland12idle_inhibit13IdleInhibitor10metaObjectEv
quickshell:_ZNK2qs7wayland12idle_inhibit13IdleInhibitor6windowEv
quickshell:_ZNK2qs7wayland15WlOutputTracker10metaObjectEv
quickshell:_ZNK2qs7wayland17background_effect16BackgroundEffect10blurRegionEv
quickshell:_ZNK2qs7wayland17background_effect16BackgroundEffect10metaObjectEv
quickshell:_ZNK2qs7wayland17background_effect4impl23BackgroundEffectManager10metaObjectEv
quickshell:_ZNK2qs7wayland17background_effect4impl23BackgroundEffectManager13blurAvailableEv
quickshell:_ZNK2qs7wayland17shortcuts_inhibit17ShortcutInhibitor10metaObjectEv
quickshell:_ZNK2qs7wayland17shortcuts_inhibit4impl18ShortcutsInhibitor10metaObjectEv
quickshell:_ZNK2qs7wayland19toplevel_management15ToplevelManager10metaObjectEv
quickshell:_ZNK2qs7wayland19toplevel_management15ToplevelManager14activeToplevelEv
quickshell:_ZNK2qs7wayland19toplevel_management15ToplevelManager7forImplEPNS1_4impl14ToplevelHandleE
quickshell:_ZNK2qs7wayland19toplevel_management18ToplevelManagerQml10metaObjectEv
quickshell:_ZNK2qs7wayland19toplevel_management4impl14ToplevelHandle10fullscreenEv
quickshell:_ZNK2qs7wayland19toplevel_management4impl14ToplevelHandle10metaObjectEv
quickshell:_ZNK2qs7wayland19toplevel_management4impl14ToplevelHandle5appIdEv
quickshell:_ZNK2qs7wayland19toplevel_management4impl14ToplevelHandle5titleEv
quickshell:_ZNK2qs7wayland19toplevel_management4impl14ToplevelHandle6parentEv
quickshell:_ZNK2qs7wayland19toplevel_management4impl14ToplevelHandle9activatedEv
quickshell:_ZNK2qs7wayland19toplevel_management4impl14ToplevelHandle9maximizedEv
quickshell:_ZNK2qs7wayland19toplevel_management4impl14ToplevelHandle9minimizedEv
quickshell:_ZNK2qs7wayland19toplevel_management4impl15ToplevelManager10metaObjectEv
quickshell:_ZNK2qs7wayland19toplevel_management4impl15ToplevelManager14readyToplevelsEv
quickshell:_ZNK2qs7wayland19toplevel_management4impl15ToplevelManager9availableEv
quickshell:_ZNK2qs7wayland19toplevel_management8Toplevel10fullscreenEv
quickshell:_ZNK2qs7wayland19toplevel_management8Toplevel10metaObjectEv
quickshell:_ZNK2qs7wayland19toplevel_management8Toplevel5appIdEv
quickshell:_ZNK2qs7wayland19toplevel_management8Toplevel5titleEv
quickshell:_ZNK2qs7wayland19toplevel_management8Toplevel6parentEv
quickshell:_ZNK2qs7wayland19toplevel_management8Toplevel7screensEv
quickshell:_ZNK2qs7wayland19toplevel_management8Toplevel9activatedEv
quickshell:_ZNK2qs7wayland19toplevel_management8Toplevel9maximizedEv
quickshell:_ZNK2qs7wayland19toplevel_management8Toplevel9minimizedEv
quickshell:_ZNK2qs7wayland6buffer15WlBufferManager10metaObjectEv
quickshell:_ZNK2qs7wayland6buffer15WlBufferManager7isReadyEv
quickshell:_ZNK2qs7wayland6buffer3shm11WlShmBuffer12isCompatibleERKNS1_15WlBufferRequestE
quickshell:_ZNK2qs7wayland6buffer3shm11WlShmBuffer16createQsgTextureEP12QQuickWindow
quickshell:_ZNK2qs7wayland6buffer6dmabuf11WlDmaBuffer12isCompatibleERKNS1_15WlBufferRequestE
quickshell:_ZNK2qs7wayland6buffer6dmabuf11WlDmaBuffer16createQsgTextureEP12QQuickWindow
quickshell:_ZNK2qs7wayland6buffer6dmabuf11WlDmaBuffer18createQsgTextureGlEP12QQuickWindow
quickshell:_ZNK2qs7wayland6buffer6dmabuf11WlDmaBuffer22createQsgTextureVulkanEP12QQuickWindow
quickshell:_ZNK2qs7wayland9workspace16WorkspaceManager10metaObjectEv
quickshell:_ZNK2qs7widgets14WrapperManager10metaObjectEv
quickshell:_ZNK2qs7widgets14WrapperManager22printChildCountWarningEv
quickshell:_ZNK2qs7widgets14WrapperManager5childEv
quickshell:_ZNK2qs7widgets14WrapperManager7wrapperEv
quickshell:_ZNK2qs7widgets20MarginWrapperManager10metaObjectEv
quickshell:_ZNK2qs8hyprland10focus_grab16FocusGrabManager9availableEv
quickshell:_ZNK2qs8hyprland10focus_grab9FocusGrab10metaObjectEv
quickshell:_ZNK2qs8hyprland10focus_grab9FocusGrab8isActiveEv
quickshell:_ZNK2qs8hyprland16global_shortcuts14GlobalShortcut10metaObjectEv
quickshell:_ZNK2qs8hyprland16global_shortcuts14GlobalShortcut11descriptionEv
quickshell:_ZNK2qs8hyprland16global_shortcuts14GlobalShortcut18triggerDescriptionEv
quickshell:_ZNK2qs8hyprland16global_shortcuts14GlobalShortcut4nameEv
quickshell:_ZNK2qs8hyprland16global_shortcuts14GlobalShortcut5appidEv
quickshell:_ZNK2qs8hyprland16global_shortcuts14GlobalShortcut9isPressedEv
quickshell:_ZNK2qs8hyprland16global_shortcuts4impl14GlobalShortcut10metaObjectEv
quickshell:_ZNK2qs8hyprland17HyprlandFocusGrab10metaObjectEv
quickshell:_ZNK2qs8hyprland17HyprlandFocusGrab7windowsEv
quickshell:_ZNK2qs8hyprland17HyprlandFocusGrab8isActiveEv
quickshell:_ZNK2qs8hyprland3ipc11HyprlandIpc10metaObjectEv
quickshell:_ZNK2qs8hyprland3ipc11HyprlandIpc15eventSocketPathEv
quickshell:_ZNK2qs8hyprland3ipc11HyprlandIpc16eventSocketErrorEN12QLocalSocket16LocalSocketErrorE
quickshell:_ZNK2qs8hyprland3ipc11HyprlandIpc17requestSocketPathEv
quickshell:_ZNK2qs8hyprland3ipc14HyprlandIpcQml10metaObjectEv
quickshell:_ZNK2qs8hyprland3ipc15HyprlandMonitor10metaObjectEv
quickshell:_ZNK2qs8hyprland3ipc15HyprlandMonitor13lastIpcObjectEv
quickshell:_ZNK2qs8hyprland3ipc16HyprlandIpcEvent10metaObjectEv
quickshell:_ZNK2qs8hyprland3ipc16HyprlandIpcEvent5parseEi
quickshell:_ZNK2qs8hyprland3ipc16HyprlandIpcEvent7dataStrEv
quickshell:_ZNK2qs8hyprland3ipc16HyprlandIpcEvent7nameStrEv
quickshell:_ZNK2qs8hyprland3ipc16HyprlandIpcEvent9parseViewEi
quickshell:_ZNK2qs8hyprland3ipc16HyprlandToplevel10metaObjectEv
quickshell:_ZNK2qs8hyprland3ipc17HyprlandWorkspace10metaObjectEv
quickshell:_ZNK2qs8hyprland3ipc17HyprlandWorkspace13lastIpcObjectEv
quickshell:_ZNK2qs8hyprland3ipc30HyprlandToplevelMappingManager10metaObjectEv
quickshell:_ZNK2qs8hyprland3ipc30HyprlandToplevelMappingManager18getToplevelAddressEPNS_7wayland19toplevel_management4impl14ToplevelHandleE
quickshell:_ZNK2qs8hyprland7surface14HyprlandWindow10metaObjectEv
quickshell:_ZNK2qs8hyprland7surface14HyprlandWindow11visibleMaskEv
quickshell:_ZNK2qs8hyprland7surface14HyprlandWindow7opacityEv
quickshell:_ZNK2qs8hyprland7surface4impl15HyprlandSurface9surfaceEqEP10wl_surface
quickshell:_ZNK2qs9bluetooth15BluetoothDevice10metaObjectEv
quickshell:_ZNK2qs9bluetooth15BluetoothDevice7adapterEv
quickshell:_ZNK2qs9bluetooth16BluetoothAdapter10metaObjectEv
quickshell:_ZNK2qs9bluetooth16BluetoothAdapter9adapterIdEv
quickshell:_ZNK2qs9bluetooth20BluetoothDeviceState10metaObjectEv
quickshell:_ZNK2qs9bluetooth21BluetoothAdapterState10metaObjectEv
quickshell:_ZNK2qs9bluetooth5Bluez10metaObjectEv
quickshell:_ZNK2qs9bluetooth8BluezQml10metaObjectEv
quickshell:_ZNK30Quickshell_Hyprland__IpcPlugin10metaObjectEv
quickshell:_ZNK30Quickshell_WindowManagerPlugin10metaObjectEv
quickshell:_ZNK31QsInterceptNetworkAccessManager10metaObjectEv
quickshell:_ZNK31Quickshell_Services_MprisPlugin10metaObjectEv
quickshell:_ZNK32Quickshell_Services_GreetdPlugin10metaObjectEv
quickshell:_ZNK32Quickshell_Services_PolkitPlugin10metaObjectEv
quickshell:_ZNK32Quickshell_Services_UPowerPlugin10metaObjectEv
quickshell:_ZNK34Quickshell_Services_PipewirePlugin10metaObjectEv
quickshell:_ZNK36Quickshell_Hyprland__FocusGrabPlugin10metaObjectEv
quickshell:_ZNK36Quickshell_Services_SystemTrayPlugin10metaObjectEv
quickshell:_ZNK36Quickshell_Wayland__IdleNotifyPlugin10metaObjectEv
quickshell:_ZNK36Quickshell_Wayland__ScreencopyPlugin10metaObjectEv
quickshell:_ZNK39Quickshell_Services_NotificationsPlugin10metaObjectEv
quickshell:_ZNK39Quickshell_Wayland__IdleInhibitorPlugin10metaObjectEv
quickshell:_ZNK39Quickshell_Wayland__WlrLayerShellPlugin10metaObjectEv
quickshell:_ZNK3Box5qrectEv
quickshell:_ZNK3BoxeqERKS_
quickshell:_ZNK42Quickshell_Hyprland__GlobalShortcutsPlugin10metaObjectEv
quickshell:_ZNK42Quickshell_Wayland__BackgroundEffectPlugin10metaObjectEv
quickshell:_ZNK44Quickshell_Hyprland__SurfaceExtensionsPlugin10metaObjectEv
quickshell:_ZNK44Quickshell_Wayland__ShortcutsInhibitorPlugin10metaObjectEv
quickshell:_ZNK44Quickshell_Wayland__ToplevelManagementPlugin10metaObjectEv
quickshell:_ZNK6Greetd10metaObjectEv
quickshell:_ZNK6Socket10metaObjectEv
quickshell:_ZNK6Socket11isConnectedEv
quickshell:_ZNK6Socket4pathEv
quickshell:_ZNK6Socket8ioDeviceEv
quickshell:_ZNK7Margins8qmarginsEv
quickshell:_ZNK7Process10metaObjectEv
quickshell:_ZNK7Process11environmentEv
quickshell:_ZNK7Process12stderrParserEv
quickshell:_ZNK7Process12stdinEnabledEv
quickshell:_ZNK7Process12stdoutParserEv
quickshell:_ZNK7Process16workingDirectoryEv
quickshell:_ZNK7Process18environmentClearedEv
quickshell:_ZNK7Process7commandEv
quickshell:_ZNK7Process9isRunningEv
quickshell:_ZNK7Process9processIdEv
quickshell:_ZNK8PamError10metaObjectEv
quickshell:_ZNK8Variants10metaObjectEv
quickshell:_ZNK8Variants5modelEv
quickshell:_ZNK9PamResult10metaObjectEv
quickshell:_ZNK9QtWayland11xdg_surface13isInitializedEv
quickshell:_ZNK9QtWayland11xdg_surface7versionEv
quickshell:_ZNK9QtWayland11xdg_wm_base13isInitializedEv
quickshell:_ZNK9QtWayland11xdg_wm_base7versionEv
quickshell:_ZNK9QtWayland12xdg_toplevel13isInitializedEv
quickshell:_ZNK9QtWayland12xdg_toplevel7versionEv
quickshell:_ZNK9QtWayland14xdg_positioner13isInitializedEv
quickshell:_ZNK9QtWayland14xdg_positioner7versionEv
quickshell:_ZNK9QtWayland18zdwl_ipc_output_v213isInitializedEv
quickshell:_ZNK9QtWayland18zdwl_ipc_output_v27versionEv
quickshell:_ZNK9QtWayland19ext_session_lock_v113isInitializedEv
quickshell:_ZNK9QtWayland19ext_session_lock_v17versionEv
quickshell:_ZNK9QtWayland19hyprland_surface_v113isInitializedEv
quickshell:_ZNK9QtWayland19hyprland_surface_v17versionEv
quickshell:_ZNK9QtWayland19zdwl_ipc_manager_v213isInitializedEv
quickshell:_ZNK9QtWayland19zdwl_ipc_manager_v27versionEv
quickshell:_ZNK9QtWayland19zwlr_layer_shell_v113isInitializedEv
quickshell:_ZNK9QtWayland19zwlr_layer_shell_v17versionEv
quickshell:_ZNK9QtWayland19zwp_linux_dmabuf_v113isInitializedEv
quickshell:_ZNK9QtWayland19zwp_linux_dmabuf_v17versionEv
quickshell:_ZNK9QtWayland20ext_idle_notifier_v113isInitializedEv
quickshell:_ZNK9QtWayland20ext_idle_notifier_v17versionEv
quickshell:_ZNK9QtWayland21zwlr_layer_surface_v113isInitializedEv
quickshell:_ZNK9QtWayland21zwlr_layer_surface_v17versionEv
quickshell:_ZNK9QtWayland21zwp_idle_inhibitor_v113isInitializedEv
quickshell:_ZNK9QtWayland21zwp_idle_inhibitor_v17versionEv
quickshell:_ZNK9QtWayland22hyprland_focus_grab_v113isInitializedEv
quickshell:_ZNK9QtWayland22hyprland_focus_grab_v17versionEv
quickshell:_ZNK9QtWayland23ext_workspace_handle_v113isInitializedEv
quickshell:_ZNK9QtWayland23ext_workspace_handle_v17versionEv
quickshell:_ZNK9QtWayland24ext_idle_notification_v113isInitializedEv
quickshell:_ZNK9QtWayland24ext_idle_notification_v17versionEv
quickshell:_ZNK9QtWayland24ext_workspace_manager_v113isInitializedEv
quickshell:_ZNK9QtWayland24ext_workspace_manager_v17versionEv
quickshell:_ZNK9QtWayland24zwlr_screencopy_frame_v113isInitializedEv
quickshell:_ZNK9QtWayland24zwlr_screencopy_frame_v17versionEv
quickshell:_ZNK9QtWayland26zwlr_screencopy_manager_v113isInitializedEv
quickshell:_ZNK9QtWayland26zwlr_screencopy_manager_v17versionEv
quickshell:_ZNK9QtWayland26zwp_linux_buffer_params_v113isInitializedEv
quickshell:_ZNK9QtWayland26zwp_linux_buffer_params_v17versionEv
quickshell:_ZNK9QtWayland27ext_image_capture_source_v113isInitializedEv
quickshell:_ZNK9QtWayland27ext_image_capture_source_v17versionEv
quickshell:_ZNK9QtWayland27ext_session_lock_manager_v113isInitializedEv
quickshell:_ZNK9QtWayland27ext_session_lock_manager_v17versionEv
quickshell:_ZNK9QtWayland27ext_session_lock_surface_v113isInitializedEv
quickshell:_ZNK9QtWayland27ext_session_lock_surface_v17versionEv
quickshell:_ZNK9QtWayland27hyprland_global_shortcut_v113isInitializedEv
quickshell:_ZNK9QtWayland27hyprland_global_shortcut_v17versionEv
quickshell:_ZNK9QtWayland27hyprland_surface_manager_v113isInitializedEv
quickshell:_ZNK9QtWayland27hyprland_surface_manager_v17versionEv
quickshell:_ZNK9QtWayland27zwp_idle_inhibit_manager_v113isInitializedEv
quickshell:_ZNK9QtWayland27zwp_idle_inhibit_manager_v17versionEv
quickshell:_ZNK9QtWayland28zwp_linux_dmabuf_feedback_v113isInitializedEv
quickshell:_ZNK9QtWayland28zwp_linux_dmabuf_feedback_v17versionEv
quickshell:_ZNK9QtWayland29ext_workspace_group_handle_v113isInitializedEv
quickshell:_ZNK9QtWayland29ext_workspace_group_handle_v17versionEv
quickshell:_ZNK9QtWayland30hyprland_focus_grab_manager_v113isInitializedEv
quickshell:_ZNK9QtWayland30hyprland_focus_grab_manager_v17versionEv
quickshell:_ZNK9QtWayland31ext_image_copy_capture_frame_v113isInitializedEv
quickshell:_ZNK9QtWayland31ext_image_copy_capture_frame_v17versionEv
quickshell:_ZNK9QtWayland31zwlr_foreign_toplevel_handle_v113isInitializedEv
quickshell:_ZNK9QtWayland31zwlr_foreign_toplevel_handle_v17versionEv
quickshell:_ZNK9QtWayland32ext_background_effect_manager_v113isInitializedEv
quickshell:_ZNK9QtWayland32ext_background_effect_manager_v17versionEv
quickshell:_ZNK9QtWayland32ext_background_effect_surface_v113isInitializedEv
quickshell:_ZNK9QtWayland32ext_background_effect_surface_v17versionEv
quickshell:_ZNK9QtWayland32zwlr_foreign_toplevel_manager_v113isInitializedEv
quickshell:_ZNK9QtWayland32zwlr_foreign_toplevel_manager_v17versionEv
quickshell:_ZNK9QtWayland33ext_image_copy_capture_manager_v113isInitializedEv
quickshell:_ZNK9QtWayland33ext_image_copy_capture_manager_v17versionEv
quickshell:_ZNK9QtWayland33ext_image_copy_capture_session_v113isInitializedEv
quickshell:_ZNK9QtWayland33ext_image_copy_capture_session_v17versionEv
quickshell:_ZNK9QtWayland33hyprland_toplevel_export_frame_v113isInitializedEv
quickshell:_ZNK9QtWayland33hyprland_toplevel_export_frame_v17versionEv
quickshell:_ZNK9QtWayland35hyprland_toplevel_export_manager_v113isInitializedEv
quickshell:_ZNK9QtWayland35hyprland_toplevel_export_manager_v17versionEv
quickshell:_ZNK9QtWayland35zwp_keyboard_shortcuts_inhibitor_v113isInitializedEv
quickshell:_ZNK9QtWayland35zwp_keyboard_shortcuts_inhibitor_v17versionEv
quickshell:_ZNK9QtWayland36hyprland_global_shortcuts_manager_v113isInitializedEv
quickshell:_ZNK9QtWayland36hyprland_global_shortcuts_manager_v17versionEv
quickshell:_ZNK9QtWayland36hyprland_toplevel_mapping_manager_v113isInitializedEv
quickshell:_ZNK9QtWayland36hyprland_toplevel_mapping_manager_v17versionEv
quickshell:_ZNK9QtWayland40ext_image_copy_capture_cursor_session_v113isInitializedEv
quickshell:_ZNK9QtWayland40ext_image_copy_capture_cursor_session_v17versionEv
quickshell:_ZNK9QtWayland41zwp_keyboard_shortcuts_inhibit_manager_v113isInitializedEv
quickshell:_ZNK9QtWayland41zwp_keyboard_shortcuts_inhibit_manager_v17versionEv
quickshell:_ZNK9QtWayland42ext_output_image_capture_source_manager_v113isInitializedEv
quickshell:_ZNK9QtWayland42ext_output_image_capture_source_manager_v17versionEv
quickshell:_ZNK9QtWayland42hyprland_toplevel_window_mapping_handle_v113isInitializedEv
quickshell:_ZNK9QtWayland42hyprland_toplevel_window_mapping_handle_v17versionEv
quickshell:_ZNK9QtWayland52ext_foreign_toplevel_image_capture_source_manager_v113isInitializedEv
quickshell:_ZNK9QtWayland52ext_foreign_toplevel_image_capture_source_manager_v17versionEv
quickshell:_ZNK9QtWayland9xdg_popup13isInitializedEv
quickshell:_ZNK9QtWayland9xdg_popup7versionEv
quickshell:_ZNK9ShellRoot10metaObjectEv
quickshell:_ZNK9ShellRoot8settingsEv
quickshell:_ZNK9Singleton10metaObjectEv
quickshell:_ZThn16_N10PamContext17componentCompleteEv
quickshell:_ZThn16_N10Reloadable17componentCompleteEv
quickshell:_ZThn16_N12SocketServerD0Ev
quickshell:_ZThn16_N12SocketServerD1Ev
quickshell:_ZThn16_N12XPanelWindowD0Ev
quickshell:_ZThn16_N12XPanelWindowD1Ev
quickshell:_ZThn16_N14BoundComponent17componentCompleteEv
quickshell:_ZThn16_N14ColorQuantizer17componentCompleteEv
quickshell:_ZThn16_N14PostReloadHook17componentCompleteEv
quickshell:_ZThn16_N14QsQmlIncubator13statusChangedEN13QQmlIncubator6StatusE
quickshell:_ZThn16_N15ProxyWindowBaseD0Ev
quickshell:_ZThn16_N15ProxyWindowBaseD1Ev
quickshell:_ZThn16_N20QSWaylandSessionLock26ext_session_lock_v1_lockedEv
quickshell:_ZThn16_N20QSWaylandSessionLock28ext_session_lock_v1_finishedEv
quickshell:_ZThn16_N20QSWaylandSessionLockD0Ev
quickshell:_ZThn16_N20QSWaylandSessionLockD1Ev
quickshell:_ZThn16_N20WlSessionLockSurfaceD0Ev
quickshell:_ZThn16_N20WlSessionLockSurfaceD1Ev
quickshell:_ZThn16_N22QsIncubationController28incubatingObjectCountChangedEi
quickshell:_ZThn16_N23ColorQuantizerOperation3runEv
quickshell:_ZThn16_N27QSWaylandSessionLockManagerD0Ev
quickshell:_ZThn16_N27QSWaylandSessionLockManagerD1Ev
quickshell:_ZThn16_N2qs2i33ipc13I3IpcListenerD0Ev
quickshell:_ZThn16_N2qs2i33ipc13I3IpcListenerD1Ev
quickshell:_ZThn16_N2qs2io14FileViewReader3runEv
quickshell:_ZThn16_N2qs2io14FileViewWriter3runEv
quickshell:_ZThn16_N2qs2io3ipc10IpcHandlerD0Ev
quickshell:_ZThn16_N2qs2io3ipc10IpcHandlerD1Ev
quickshell:_ZThn16_N2qs3dwl12DwlIpcOutput22zdwl_ipc_output_v2_tagEjjjj
quickshell:_ZThn16_N2qs3dwl12DwlIpcOutput24zdwl_ipc_output_v2_appidERK7QString
quickshell:_ZThn16_N2qs3dwl12DwlIpcOutput24zdwl_ipc_output_v2_frameEv
quickshell:_ZThn16_N2qs3dwl12DwlIpcOutput24zdwl_ipc_output_v2_titleERK7QString
quickshell:_ZThn16_N2qs3dwl12DwlIpcOutput25zdwl_ipc_output_v2_activeEj
quickshell:_ZThn16_N2qs3dwl12DwlIpcOutput25zdwl_ipc_output_v2_layoutEj
quickshell:_ZThn16_N2qs3dwl12DwlIpcOutput27zdwl_ipc_output_v2_floatingEj
quickshell:_ZThn16_N2qs3dwl12DwlIpcOutput28zdwl_ipc_output_v2_kb_layoutERK7QString
quickshell:_ZThn16_N2qs3dwl12DwlIpcOutput29zdwl_ipc_output_v2_fullscreenEj
quickshell:_ZThn16_N2qs3dwl12DwlIpcOutput32zdwl_ipc_output_v2_layout_symbolERK7QString
quickshell:_ZThn16_N2qs3dwl12DwlIpcOutput36zdwl_ipc_output_v2_toggle_visibilityEv
quickshell:_ZThn16_N2qs3dwl12DwlIpcOutputD0Ev
quickshell:_ZThn16_N2qs3dwl12DwlIpcOutputD1Ev
quickshell:_ZThn16_N2qs3dwl13DwlIpcManager24zdwl_ipc_manager_v2_tagsEj
quickshell:_ZThn16_N2qs3dwl13DwlIpcManager26zdwl_ipc_manager_v2_layoutERK7QString
quickshell:_ZThn16_N2qs4menu8platform17PlatformMenuQMenuD0Ev
quickshell:_ZThn16_N2qs4menu8platform17PlatformMenuQMenuD1Ev
quickshell:_ZThn16_N2qs7service6polkit11PolkitAgent17componentCompleteEv
quickshell:_ZThn16_N2qs7service6polkit11PolkitAgentD0Ev
quickshell:_ZThn16_N2qs7service6polkit11PolkitAgentD1Ev
quickshell:_ZThn16_N2qs7service6polkit15PolkitAgentImpl16registerCompleteEb
quickshell:_ZThn16_N2qs7service6polkit15PolkitAgentImpl20cancelAuthenticationEPNS1_11AuthRequestE
quickshell:_ZThn16_N2qs7service6polkit15PolkitAgentImpl22initiateAuthenticationEPNS1_11AuthRequestE
quickshell:_ZThn16_N2qs7service6polkit15PolkitAgentImplD0Ev
quickshell:_ZThn16_N2qs7service6polkit15PolkitAgentImplD1Ev
quickshell:_ZThn16_N2qs7service6polkit8AuthFlowD0Ev
quickshell:_ZThn16_N2qs7service6polkit8AuthFlowD1Ev
quickshell:_ZThn16_N2qs7service8pipewire13PwObjectIface3refEv
quickshell:_ZThn16_N2qs7service8pipewire13PwObjectIface5unrefEv
quickshell:_ZThn16_N2qs7service8pipewire16PwLinkGroupIface3refEv
quickshell:_ZThn16_N2qs7service8pipewire16PwLinkGroupIface5unrefEv
quickshell:_ZThn16_N2qs7service8pipewire16PwNodeBoundAudio10onSpaParamEjjPK7spa_pod
quickshell:_ZThn16_N2qs7service8pipewire16PwNodeBoundAudio15onDeviceChangedEv
quickshell:_ZThn16_N2qs7service8pipewire16PwNodeBoundAudio6onInfoEPK12pw_node_info
quickshell:_ZThn16_N2qs7service8pipewire16PwNodeBoundAudio8onUnbindEv
quickshell:_ZThn16_N2qs7wayland10layershell21LayerShellIntegration18createShellSurfaceEPN15QtWaylandClient14QWaylandWindowE
quickshell:_ZThn16_N2qs7wayland10layershell21LayerShellIntegrationD0Ev
quickshell:_ZThn16_N2qs7wayland10layershell21LayerShellIntegrationD1Ev
quickshell:_ZThn16_N2qs7wayland10screencopy14ScreencopyView17componentCompleteEv
quickshell:_ZThn16_N2qs7wayland11idle_notify11IdleMonitorD0Ev
quickshell:_ZThn16_N2qs7wayland11idle_notify11IdleMonitorD1Ev
quickshell:_ZThn16_N2qs7wayland11idle_notify4impl16IdleNotification30ext_idle_notification_v1_idledEv
quickshell:_ZThn16_N2qs7wayland11idle_notify4impl16IdleNotification32ext_idle_notification_v1_resumedEv
quickshell:_ZThn16_N2qs7wayland11idle_notify4impl16IdleNotificationD0Ev
quickshell:_ZThn16_N2qs7wayland11idle_notify4impl16IdleNotificationD1Ev
quickshell:_ZThn16_N2qs7wayland17background_effect4impl23BackgroundEffectManager45ext_background_effect_manager_v1_capabilitiesEj
quickshell:_ZThn16_N2qs7wayland17shortcuts_inhibit4impl18ShortcutsInhibitor42zwp_keyboard_shortcuts_inhibitor_v1_activeEv
quickshell:_ZThn16_N2qs7wayland17shortcuts_inhibit4impl18ShortcutsInhibitor44zwp_keyboard_shortcuts_inhibitor_v1_inactiveEv
quickshell:_ZThn16_N2qs7wayland17shortcuts_inhibit4impl18ShortcutsInhibitorD0Ev
quickshell:_ZThn16_N2qs7wayland17shortcuts_inhibit4impl18ShortcutsInhibitorD1Ev
quickshell:_ZThn16_N2qs7wayland19toplevel_management4impl14ToplevelHandle36zwlr_foreign_toplevel_handle_v1_doneEv
quickshell:_ZThn16_N2qs7wayland19toplevel_management4impl14ToplevelHandle37zwlr_foreign_toplevel_handle_v1_stateEP8wl_array
quickshell:_ZThn16_N2qs7wayland19toplevel_management4impl14ToplevelHandle37zwlr_foreign_toplevel_handle_v1_titleERK7QString
quickshell:_ZThn16_N2qs7wayland19toplevel_management4impl14ToplevelHandle38zwlr_foreign_toplevel_handle_v1_app_idERK7QString
quickshell:_ZThn16_N2qs7wayland19toplevel_management4impl14ToplevelHandle38zwlr_foreign_toplevel_handle_v1_closedEv
quickshell:_ZThn16_N2qs7wayland19toplevel_management4impl14ToplevelHandle38zwlr_foreign_toplevel_handle_v1_parentEP31zwlr_foreign_toplevel_handle_v1
quickshell:_ZThn16_N2qs7wayland19toplevel_management4impl14ToplevelHandle44zwlr_foreign_toplevel_handle_v1_output_enterEP9wl_output
quickshell:_ZThn16_N2qs7wayland19toplevel_management4impl14ToplevelHandle44zwlr_foreign_toplevel_handle_v1_output_leaveEP9wl_output
quickshell:_ZThn16_N2qs7wayland19toplevel_management4impl15ToplevelManager41zwlr_foreign_toplevel_manager_v1_toplevelEP31zwlr_foreign_toplevel_handle_v1
quickshell:_ZThn16_N2qs7wayland9workspace16WorkspaceManager29ext_workspace_manager_v1_doneEv
quickshell:_ZThn16_N2qs7wayland9workspace16WorkspaceManager33ext_workspace_manager_v1_finishedEv
quickshell:_ZThn16_N2qs7wayland9workspace16WorkspaceManager34ext_workspace_manager_v1_workspaceEP23ext_workspace_handle_v1
quickshell:_ZThn16_N2qs7wayland9workspace16WorkspaceManager40ext_workspace_manager_v1_workspace_groupEP29ext_workspace_group_handle_v1
quickshell:_ZThn16_N2qs7widgets14WrapperManager17componentCompleteEv
quickshell:_ZThn16_N2qs7widgets20MarginWrapperManager17componentCompleteEv
quickshell:_ZThn16_N2qs8hyprland10focus_grab9FocusGrab30hyprland_focus_grab_v1_clearedEv
quickshell:_ZThn16_N2qs8hyprland10focus_grab9FocusGrabD0Ev
quickshell:_ZThn16_N2qs8hyprland10focus_grab9FocusGrabD1Ev
quickshell:_ZThn16_N2qs8hyprland16global_shortcuts14GlobalShortcutD0Ev
quickshell:_ZThn16_N2qs8hyprland16global_shortcuts14GlobalShortcutD1Ev
quickshell:_ZThn16_N2qs8hyprland16global_shortcuts4impl14GlobalShortcut35hyprland_global_shortcut_v1_pressedEjjj
quickshell:_ZThn16_N2qs8hyprland16global_shortcuts4impl14GlobalShortcut36hyprland_global_shortcut_v1_releasedEjjj
quickshell:_ZThn16_N2qs8hyprland16global_shortcuts4impl14GlobalShortcutD0Ev
quickshell:_ZThn16_N2qs8hyprland16global_shortcuts4impl14GlobalShortcutD1Ev
quickshell:_ZThn16_N2qs8hyprland17HyprlandFocusGrab17componentCompleteEv
quickshell:_ZThn16_N7ProcessD0Ev
quickshell:_ZThn16_N7ProcessD1Ev
quickshell:_ZThn16_N8Variants17componentCompleteEv
quickshell:_ZThn16_N9Singleton17componentCompleteEv
quickshell:_ZThn24_N27QSWaylandSessionLockSurface37ext_session_lock_surface_v1_configureEjjj
quickshell:_ZThn24_N27QSWaylandSessionLockSurfaceD0Ev
quickshell:_ZThn24_N27QSWaylandSessionLockSurfaceD1Ev
quickshell:_ZThn24_N2qs2io11JsonAdapter17componentCompleteEv
quickshell:_ZThn24_N2qs7wayland10layershell12LayerSurface28zwlr_layer_surface_v1_closedEv
quickshell:_ZThn24_N2qs7wayland10layershell12LayerSurface31zwlr_layer_surface_v1_configureEjjj
quickshell:_ZThn24_N2qs7wayland10layershell12LayerSurfaceD0Ev
quickshell:_ZThn24_N2qs7wayland10layershell12LayerSurfaceD1Ev
quickshell:_ZThn24_N2qs7wayland10layershell21LayerShellIntegrationD0Ev
quickshell:_ZThn24_N2qs7wayland10layershell21LayerShellIntegrationD1Ev
quickshell:_ZThn40_N2qs7wayland10screencopy3icc20IccScreencopyContext38ext_image_copy_capture_session_v1_doneEv
quickshell:_ZThn40_N2qs7wayland10screencopy3icc20IccScreencopyContext41ext_image_copy_capture_session_v1_stoppedEv
quickshell:_ZThn40_N2qs7wayland10screencopy3icc20IccScreencopyContext44ext_image_copy_capture_session_v1_shm_formatEj
quickshell:_ZThn40_N2qs7wayland10screencopy3icc20IccScreencopyContext45ext_image_copy_capture_session_v1_buffer_sizeEjj
quickshell:_ZThn40_N2qs7wayland10screencopy3icc20IccScreencopyContext47ext_image_copy_capture_session_v1_dmabuf_deviceEP8wl_array
quickshell:_ZThn40_N2qs7wayland10screencopy3icc20IccScreencopyContext47ext_image_copy_capture_session_v1_dmabuf_formatEjP8wl_array
quickshell:_ZThn40_N2qs7wayland10screencopy3icc20IccScreencopyContextD0Ev
quickshell:_ZThn40_N2qs7wayland10screencopy3icc20IccScreencopyContextD1Ev
quickshell:_ZThn40_N2qs7wayland10screencopy3wlr20WlrScreencopyContext30zwlr_screencopy_frame_v1_flagsEj
quickshell:_ZThn40_N2qs7wayland10screencopy3wlr20WlrScreencopyContext30zwlr_screencopy_frame_v1_readyEjjj
quickshell:_ZThn40_N2qs7wayland10screencopy3wlr20WlrScreencopyContext31zwlr_screencopy_frame_v1_bufferEjjjj
quickshell:_ZThn40_N2qs7wayland10screencopy3wlr20WlrScreencopyContext31zwlr_screencopy_frame_v1_failedEv
quickshell:_ZThn40_N2qs7wayland10screencopy3wlr20WlrScreencopyContext36zwlr_screencopy_frame_v1_buffer_doneEv
quickshell:_ZThn40_N2qs7wayland10screencopy3wlr20WlrScreencopyContext37zwlr_screencopy_frame_v1_linux_dmabufEjjj
quickshell:_ZThn40_N2qs7wayland10screencopy3wlr20WlrScreencopyContextD0Ev
quickshell:_ZThn40_N2qs7wayland10screencopy3wlr20WlrScreencopyContextD1Ev
quickshell:_ZThn40_N2qs7wayland10screencopy8hyprland25HyprlandScreencopyContext39hyprland_toplevel_export_frame_v1_flagsEj
quickshell:_ZThn40_N2qs7wayland10screencopy8hyprland25HyprlandScreencopyContext39hyprland_toplevel_export_frame_v1_readyEjjj
quickshell:_ZThn40_N2qs7wayland10screencopy8hyprland25HyprlandScreencopyContext40hyprland_toplevel_export_frame_v1_bufferEjjjj
quickshell:_ZThn40_N2qs7wayland10screencopy8hyprland25HyprlandScreencopyContext40hyprland_toplevel_export_frame_v1_failedEv
quickshell:_ZThn40_N2qs7wayland10screencopy8hyprland25HyprlandScreencopyContext45hyprland_toplevel_export_frame_v1_buffer_doneEv
quickshell:_ZThn40_N2qs7wayland10screencopy8hyprland25HyprlandScreencopyContext46hyprland_toplevel_export_frame_v1_linux_dmabufEjjj
quickshell:_ZThn40_N2qs7wayland10screencopy8hyprland25HyprlandScreencopyContextD0Ev
quickshell:_ZThn40_N2qs7wayland10screencopy8hyprland25HyprlandScreencopyContextD1Ev
quickshell:_ZThn56_N2qs7wayland10screencopy3icc20IccScreencopyContext37ext_image_copy_capture_frame_v1_readyEv
quickshell:_ZThn56_N2qs7wayland10screencopy3icc20IccScreencopyContext38ext_image_copy_capture_frame_v1_damageEiiii
quickshell:_ZThn56_N2qs7wayland10screencopy3icc20IccScreencopyContext38ext_image_copy_capture_frame_v1_failedEj
quickshell:_ZThn56_N2qs7wayland10screencopy3icc20IccScreencopyContext41ext_image_copy_capture_frame_v1_transformEj
quickshell:_ZThn56_N2qs7wayland10screencopy3icc20IccScreencopyContextD0Ev
quickshell:_ZThn56_N2qs7wayland10screencopy3icc20IccScreencopyContextD1Ev
quickshell:_Zls6QDebugPK20QuickshellScreenInfo
quickshell:_Zls6QDebugPKN2qs7network10WifiDeviceE
quickshell:_Zls6QDebugPKN2qs7network11WifiNetworkE
quickshell:_Zls6QDebugPKN2qs9bluetooth15BluetoothDeviceE
quickshell:_Zls6QDebugPKN2qs9bluetooth16BluetoothAdapterE
quickshell:_Zls6QDebugRK14DBusMenuLayout
quickshell:_Zls6QDebugRK14DBusSniTooltip
quickshell:_Zls6QDebugRK17DBusSniIconPixmap
quickshell:_Zls6QDebugRK22DBusMenuItemProperties
quickshell:_Zls6QDebugRK25DBusMenuItemPropertyNames
quickshell:_Zls6QDebugRK3Box
quickshell:_Zls6QDebugRK6Locale
quickshell:_ZlsR11QDataStreamRK12InstanceInfo
quickshell:_ZlsR11QDataStreamRK12RelaunchInfo
quickshell:_ZlsR13QDBusArgumentRK14DBusMenuLayout
quickshell:_ZlsR13QDBusArgumentRK14DBusSniTooltip
quickshell:_ZlsR13QDBusArgumentRK17DBusSniIconPixmap
quickshell:_ZlsR13QDBusArgumentRK22DBusMenuItemProperties
quickshell:_ZlsR13QDBusArgumentRK25DBusMenuItemPropertyNames
quickshell:_ZlsR13QDBusArgumentRK5QListI17DBusSniIconPixmapE
quickshell:_ZrsR11QDataStreamR12InstanceInfo
quickshell:_ZrsR11QDataStreamR12RelaunchInfo
quickshell:_ZrsRK13QDBusArgumentR14DBusMenuLayout
quickshell:_ZrsRK13QDBusArgumentR14DBusSniTooltip
quickshell:_ZrsRK13QDBusArgumentR17DBusSniIconPixmap
quickshell:_ZrsRK13QDBusArgumentR22DBusMenuItemProperties
quickshell:_ZrsRK13QDBusArgumentR25DBusMenuItemPropertyNames
quickshell:_ZrsRK13QDBusArgumentR5QListI17DBusSniIconPixmapE
quickshell:__bss_start
quickshell:__data_start
quickshell:_edata
quickshell:_end
quickshell:_start
quickshell:main
quickshell:qs_polkit_agent_get_type
quickshell:qs_polkit_agent_new
quickshell:qs_polkit_agent_register
quickshell:qs_polkit_agent_unregister
quickshell:wl_proxy_get_listener
